
cc_merge2.elf:     file format elf32-avr

Sections:
Idx Name          Size      VMA       LMA       File off  Algn
  0 .data         000006fc  00800200  00001ea4  00001f38  2**0
                  CONTENTS, ALLOC, LOAD, DATA
  1 .text         00001ea4  00000000  00000000  00000094  2**1
                  CONTENTS, ALLOC, LOAD, READONLY, CODE
  2 .bss          0000012f  008008fc  008008fc  00002634  2**0
                  ALLOC
  3 .comment      0000005c  00000000  00000000  00002634  2**0
                  CONTENTS, READONLY
  4 .note.gnu.avr.deviceinfo 00000040  00000000  00000000  00002690  2**2
                  CONTENTS, READONLY
  5 .debug_aranges 000003c8  00000000  00000000  000026d0  2**0
                  CONTENTS, READONLY, DEBUGGING
  6 .debug_info   00004c33  00000000  00000000  00002a98  2**0
                  CONTENTS, READONLY, DEBUGGING
  7 .debug_abbrev 000018ad  00000000  00000000  000076cb  2**0
                  CONTENTS, READONLY, DEBUGGING
  8 .debug_line   0000227f  00000000  00000000  00008f78  2**0
                  CONTENTS, READONLY, DEBUGGING
  9 .debug_frame  00000be0  00000000  00000000  0000b1f8  2**2
                  CONTENTS, READONLY, DEBUGGING
 10 .debug_str    0000129f  00000000  00000000  0000bdd8  2**0
                  CONTENTS, READONLY, DEBUGGING
 11 .debug_loc    00004646  00000000  00000000  0000d077  2**0
                  CONTENTS, READONLY, DEBUGGING
 12 .debug_ranges 00000348  00000000  00000000  000116bd  2**0
                  CONTENTS, READONLY, DEBUGGING

Disassembly of section .text:

00000000 <__vectors>:
       0:	f6 c0       	rjmp	.+492    	; 0x1ee <__ctors_end>
       2:	00 00       	nop
       4:	0c 94 c6 08 	jmp	0x118c	; 0x118c <__vector_1>
       8:	0c 94 83 08 	jmp	0x1106	; 0x1106 <__vector_2>
       c:	0e c1       	rjmp	.+540    	; 0x22a <__bad_interrupt>
       e:	00 00       	nop
      10:	0c c1       	rjmp	.+536    	; 0x22a <__bad_interrupt>
      12:	00 00       	nop
      14:	0a c1       	rjmp	.+532    	; 0x22a <__bad_interrupt>
      16:	00 00       	nop
      18:	08 c1       	rjmp	.+528    	; 0x22a <__bad_interrupt>
      1a:	00 00       	nop
      1c:	06 c1       	rjmp	.+524    	; 0x22a <__bad_interrupt>
      1e:	00 00       	nop
      20:	04 c1       	rjmp	.+520    	; 0x22a <__bad_interrupt>
      22:	00 00       	nop
      24:	0c 94 06 09 	jmp	0x120c	; 0x120c <__vector_9>
      28:	00 c1       	rjmp	.+512    	; 0x22a <__bad_interrupt>
      2a:	00 00       	nop
      2c:	fe c0       	rjmp	.+508    	; 0x22a <__bad_interrupt>
      2e:	00 00       	nop
      30:	fc c0       	rjmp	.+504    	; 0x22a <__bad_interrupt>
      32:	00 00       	nop
      34:	fa c0       	rjmp	.+500    	; 0x22a <__bad_interrupt>
      36:	00 00       	nop
      38:	f8 c0       	rjmp	.+496    	; 0x22a <__bad_interrupt>
      3a:	00 00       	nop
      3c:	f6 c0       	rjmp	.+492    	; 0x22a <__bad_interrupt>
      3e:	00 00       	nop
      40:	f4 c0       	rjmp	.+488    	; 0x22a <__bad_interrupt>
      42:	00 00       	nop
      44:	0c 94 79 08 	jmp	0x10f2	; 0x10f2 <__vector_17>
      48:	f0 c0       	rjmp	.+480    	; 0x22a <__bad_interrupt>
      4a:	00 00       	nop
      4c:	ee c0       	rjmp	.+476    	; 0x22a <__bad_interrupt>
      4e:	00 00       	nop
      50:	ec c0       	rjmp	.+472    	; 0x22a <__bad_interrupt>
      52:	00 00       	nop
      54:	0c 94 52 08 	jmp	0x10a4	; 0x10a4 <__vector_21>
      58:	e8 c0       	rjmp	.+464    	; 0x22a <__bad_interrupt>
      5a:	00 00       	nop
      5c:	e6 c0       	rjmp	.+460    	; 0x22a <__bad_interrupt>
      5e:	00 00       	nop
      60:	e4 c0       	rjmp	.+456    	; 0x22a <__bad_interrupt>
      62:	00 00       	nop
      64:	0c 94 0f 0b 	jmp	0x161e	; 0x161e <__vector_25>
      68:	0c 94 6d 0b 	jmp	0x16da	; 0x16da <__vector_26>
      6c:	de c0       	rjmp	.+444    	; 0x22a <__bad_interrupt>
      6e:	00 00       	nop
      70:	dc c0       	rjmp	.+440    	; 0x22a <__bad_interrupt>
      72:	00 00       	nop
      74:	da c0       	rjmp	.+436    	; 0x22a <__bad_interrupt>
      76:	00 00       	nop
      78:	d8 c0       	rjmp	.+432    	; 0x22a <__bad_interrupt>
      7a:	00 00       	nop
      7c:	d6 c0       	rjmp	.+428    	; 0x22a <__bad_interrupt>
      7e:	00 00       	nop
      80:	d4 c0       	rjmp	.+424    	; 0x22a <__bad_interrupt>
      82:	00 00       	nop
      84:	d2 c0       	rjmp	.+420    	; 0x22a <__bad_interrupt>
      86:	00 00       	nop
      88:	d0 c0       	rjmp	.+416    	; 0x22a <__bad_interrupt>
      8a:	00 00       	nop
      8c:	ce c0       	rjmp	.+412    	; 0x22a <__bad_interrupt>
      8e:	00 00       	nop
      90:	0c 94 3e 0b 	jmp	0x167c	; 0x167c <__vector_36>
      94:	0c 94 9b 0b 	jmp	0x1736	; 0x1736 <__vector_37>
      98:	c8 c0       	rjmp	.+400    	; 0x22a <__bad_interrupt>
      9a:	00 00       	nop
      9c:	c6 c0       	rjmp	.+396    	; 0x22a <__bad_interrupt>
      9e:	00 00       	nop
      a0:	c4 c0       	rjmp	.+392    	; 0x22a <__bad_interrupt>
      a2:	00 00       	nop
      a4:	c2 c0       	rjmp	.+388    	; 0x22a <__bad_interrupt>
      a6:	00 00       	nop
      a8:	c0 c0       	rjmp	.+384    	; 0x22a <__bad_interrupt>
      aa:	00 00       	nop
      ac:	be c0       	rjmp	.+380    	; 0x22a <__bad_interrupt>
      ae:	00 00       	nop
      b0:	bc c0       	rjmp	.+376    	; 0x22a <__bad_interrupt>
      b2:	00 00       	nop
      b4:	ba c0       	rjmp	.+372    	; 0x22a <__bad_interrupt>
      b6:	00 00       	nop
      b8:	b8 c0       	rjmp	.+368    	; 0x22a <__bad_interrupt>
      ba:	00 00       	nop
      bc:	b6 c0       	rjmp	.+364    	; 0x22a <__bad_interrupt>
      be:	00 00       	nop
      c0:	b4 c0       	rjmp	.+360    	; 0x22a <__bad_interrupt>
      c2:	00 00       	nop
      c4:	b2 c0       	rjmp	.+356    	; 0x22a <__bad_interrupt>
      c6:	00 00       	nop
      c8:	b0 c0       	rjmp	.+352    	; 0x22a <__bad_interrupt>
      ca:	00 00       	nop
      cc:	ae c0       	rjmp	.+348    	; 0x22a <__bad_interrupt>
      ce:	00 00       	nop
      d0:	ac c0       	rjmp	.+344    	; 0x22a <__bad_interrupt>
      d2:	00 00       	nop
      d4:	aa c0       	rjmp	.+340    	; 0x22a <__bad_interrupt>
      d6:	00 00       	nop
      d8:	a8 c0       	rjmp	.+336    	; 0x22a <__bad_interrupt>
      da:	00 00       	nop
      dc:	a6 c0       	rjmp	.+332    	; 0x22a <__bad_interrupt>
      de:	00 00       	nop
      e0:	a4 c0       	rjmp	.+328    	; 0x22a <__bad_interrupt>
      e2:	00 00       	nop
      e4:	15 02       	muls	r17, r21
      e6:	76 04       	cpc	r7, r6
      e8:	d2 02       	muls	r29, r18
      ea:	ed 02       	muls	r30, r29
      ec:	08 03       	fmul	r16, r16
      ee:	23 03       	mulsu	r18, r19
      f0:	3e 03       	fmul	r19, r22
      f2:	59 03       	fmul	r21, r17
      f4:	74 03       	mulsu	r23, r20
      f6:	8f 03       	fmulsu	r16, r23
      f8:	aa 03       	fmulsu	r18, r18
      fa:	c5 03       	fmuls	r20, r21
      fc:	e0 03       	fmuls	r22, r16
      fe:	f2 03       	fmuls	r23, r18
     100:	04 04       	cpc	r0, r4
     102:	16 04       	cpc	r1, r6
     104:	28 04       	cpc	r2, r8
     106:	43 04       	cpc	r4, r3
     108:	5d 04       	cpc	r5, r13
     10a:	76 04       	cpc	r7, r6
     10c:	76 04       	cpc	r7, r6
     10e:	76 04       	cpc	r7, r6
     110:	76 04       	cpc	r7, r6
     112:	76 04       	cpc	r7, r6
     114:	76 04       	cpc	r7, r6
     116:	76 04       	cpc	r7, r6
     118:	76 04       	cpc	r7, r6
     11a:	76 04       	cpc	r7, r6
     11c:	76 04       	cpc	r7, r6
     11e:	76 04       	cpc	r7, r6
     120:	76 04       	cpc	r7, r6
     122:	76 04       	cpc	r7, r6
     124:	76 04       	cpc	r7, r6
     126:	76 04       	cpc	r7, r6
     128:	76 04       	cpc	r7, r6
     12a:	76 04       	cpc	r7, r6
     12c:	76 04       	cpc	r7, r6
     12e:	76 04       	cpc	r7, r6
     130:	76 04       	cpc	r7, r6
     132:	76 04       	cpc	r7, r6
     134:	76 04       	cpc	r7, r6
     136:	76 04       	cpc	r7, r6
     138:	76 04       	cpc	r7, r6
     13a:	76 04       	cpc	r7, r6
     13c:	76 04       	cpc	r7, r6
     13e:	76 04       	cpc	r7, r6
     140:	76 04       	cpc	r7, r6
     142:	76 04       	cpc	r7, r6
     144:	76 04       	cpc	r7, r6
     146:	76 04       	cpc	r7, r6
     148:	76 04       	cpc	r7, r6
     14a:	76 04       	cpc	r7, r6
     14c:	76 04       	cpc	r7, r6
     14e:	76 04       	cpc	r7, r6
     150:	76 04       	cpc	r7, r6
     152:	76 04       	cpc	r7, r6
     154:	76 04       	cpc	r7, r6
     156:	76 04       	cpc	r7, r6
     158:	76 04       	cpc	r7, r6
     15a:	76 04       	cpc	r7, r6
     15c:	76 04       	cpc	r7, r6
     15e:	76 04       	cpc	r7, r6
     160:	76 04       	cpc	r7, r6
     162:	76 04       	cpc	r7, r6
     164:	76 04       	cpc	r7, r6
     166:	76 04       	cpc	r7, r6
     168:	76 04       	cpc	r7, r6
     16a:	76 04       	cpc	r7, r6
     16c:	76 04       	cpc	r7, r6
     16e:	76 04       	cpc	r7, r6
     170:	76 04       	cpc	r7, r6
     172:	76 04       	cpc	r7, r6
     174:	76 04       	cpc	r7, r6
     176:	76 04       	cpc	r7, r6
     178:	76 04       	cpc	r7, r6
     17a:	76 04       	cpc	r7, r6
     17c:	76 04       	cpc	r7, r6
     17e:	76 04       	cpc	r7, r6
     180:	76 04       	cpc	r7, r6
     182:	76 04       	cpc	r7, r6
     184:	76 04       	cpc	r7, r6
     186:	76 04       	cpc	r7, r6
     188:	76 04       	cpc	r7, r6
     18a:	76 04       	cpc	r7, r6
     18c:	76 04       	cpc	r7, r6
     18e:	76 04       	cpc	r7, r6
     190:	76 04       	cpc	r7, r6
     192:	76 04       	cpc	r7, r6
     194:	76 04       	cpc	r7, r6
     196:	76 04       	cpc	r7, r6
     198:	76 04       	cpc	r7, r6
     19a:	76 04       	cpc	r7, r6
     19c:	76 04       	cpc	r7, r6
     19e:	76 04       	cpc	r7, r6
     1a0:	76 04       	cpc	r7, r6
     1a2:	76 04       	cpc	r7, r6
     1a4:	76 04       	cpc	r7, r6
     1a6:	76 04       	cpc	r7, r6
     1a8:	76 04       	cpc	r7, r6
     1aa:	76 04       	cpc	r7, r6
     1ac:	76 04       	cpc	r7, r6
     1ae:	76 04       	cpc	r7, r6
     1b0:	76 04       	cpc	r7, r6
     1b2:	76 04       	cpc	r7, r6
     1b4:	76 04       	cpc	r7, r6
     1b6:	76 04       	cpc	r7, r6
     1b8:	76 04       	cpc	r7, r6
     1ba:	76 04       	cpc	r7, r6
     1bc:	76 04       	cpc	r7, r6
     1be:	76 04       	cpc	r7, r6
     1c0:	76 04       	cpc	r7, r6
     1c2:	30 02       	muls	r19, r16
     1c4:	4b 02       	muls	r20, r27
     1c6:	76 04       	cpc	r7, r6
     1c8:	76 04       	cpc	r7, r6
     1ca:	76 04       	cpc	r7, r6
     1cc:	76 04       	cpc	r7, r6
     1ce:	76 04       	cpc	r7, r6
     1d0:	76 04       	cpc	r7, r6
     1d2:	76 04       	cpc	r7, r6
     1d4:	76 04       	cpc	r7, r6
     1d6:	66 02       	muls	r22, r22
     1d8:	81 02       	muls	r24, r17
     1da:	76 04       	cpc	r7, r6
     1dc:	76 04       	cpc	r7, r6
     1de:	76 04       	cpc	r7, r6
     1e0:	76 04       	cpc	r7, r6
     1e2:	76 04       	cpc	r7, r6
     1e4:	76 04       	cpc	r7, r6
     1e6:	76 04       	cpc	r7, r6
     1e8:	76 04       	cpc	r7, r6
     1ea:	9c 02       	muls	r25, r28
     1ec:	b7 02       	muls	r27, r23

000001ee <__ctors_end>:
     1ee:	11 24       	eor	r1, r1
     1f0:	1f be       	out	0x3f, r1	; 63
     1f2:	cf ef       	ldi	r28, 0xFF	; 255
     1f4:	d1 e2       	ldi	r29, 0x21	; 33
     1f6:	de bf       	out	0x3e, r29	; 62
     1f8:	cd bf       	out	0x3d, r28	; 61

000001fa <__do_copy_data>:
     1fa:	18 e0       	ldi	r17, 0x08	; 8
     1fc:	a0 e0       	ldi	r26, 0x00	; 0
     1fe:	b2 e0       	ldi	r27, 0x02	; 2
     200:	e4 ea       	ldi	r30, 0xA4	; 164
     202:	fe e1       	ldi	r31, 0x1E	; 30
     204:	00 e0       	ldi	r16, 0x00	; 0
     206:	0b bf       	out	0x3b, r16	; 59
     208:	02 c0       	rjmp	.+4      	; 0x20e <__do_copy_data+0x14>
     20a:	07 90       	elpm	r0, Z+
     20c:	0d 92       	st	X+, r0
     20e:	ac 3f       	cpi	r26, 0xFC	; 252
     210:	b1 07       	cpc	r27, r17
     212:	d9 f7       	brne	.-10     	; 0x20a <__do_copy_data+0x10>

00000214 <__do_clear_bss>:
     214:	2a e0       	ldi	r18, 0x0A	; 10
     216:	ac ef       	ldi	r26, 0xFC	; 252
     218:	b8 e0       	ldi	r27, 0x08	; 8
     21a:	01 c0       	rjmp	.+2      	; 0x21e <.do_clear_bss_start>

0000021c <.do_clear_bss_loop>:
     21c:	1d 92       	st	X+, r1

0000021e <.do_clear_bss_start>:
     21e:	ab 32       	cpi	r26, 0x2B	; 43
     220:	b2 07       	cpc	r27, r18
     222:	e1 f7       	brne	.-8      	; 0x21c <.do_clear_bss_loop>
     224:	1e d6       	rcall	.+3132   	; 0xe62 <main>
     226:	0c 94 50 0f 	jmp	0x1ea0	; 0x1ea0 <_exit>

0000022a <__bad_interrupt>:
     22a:	ea ce       	rjmp	.-556    	; 0x0 <__vectors>

0000022c <a2dOn>:
// starts conversion, waits until conversion is done, and returns result
unsigned char a2d_8bit()
{
	// do 10-bit conversion and return highest 8 bits
	return a2d_10bit()>>2;			// return ADC MSB byte
}
     22c:	ea e7       	ldi	r30, 0x7A	; 122
     22e:	f0 e0       	ldi	r31, 0x00	; 0
     230:	80 81       	ld	r24, Z
     232:	80 68       	ori	r24, 0x80	; 128
     234:	80 83       	st	Z, r24
     236:	08 95       	ret

00000238 <a2dSetPrescaler>:
     238:	ea e7       	ldi	r30, 0x7A	; 122
     23a:	f0 e0       	ldi	r31, 0x00	; 0
     23c:	90 81       	ld	r25, Z
     23e:	98 7f       	andi	r25, 0xF8	; 248
     240:	90 83       	st	Z, r25
     242:	90 81       	ld	r25, Z
     244:	89 2b       	or	r24, r25
     246:	80 83       	st	Z, r24
     248:	08 95       	ret

0000024a <a2dSetReference>:
     24a:	ec e7       	ldi	r30, 0x7C	; 124
     24c:	f0 e0       	ldi	r31, 0x00	; 0
     24e:	90 81       	ld	r25, Z
     250:	9c 7f       	andi	r25, 0xFC	; 252
     252:	90 83       	st	Z, r25
     254:	20 81       	ld	r18, Z
     256:	30 e4       	ldi	r19, 0x40	; 64
     258:	83 9f       	mul	r24, r19
     25a:	c0 01       	movw	r24, r0
     25c:	11 24       	eor	r1, r1
     25e:	82 2b       	or	r24, r18
     260:	80 83       	st	Z, r24
     262:	08 95       	ret

00000264 <a2dInit>:
     264:	cf 93       	push	r28
     266:	c6 2f       	mov	r28, r22
     268:	10 92 7a 00 	sts	0x007A, r1	; 0x80007a <__TEXT_REGION_LENGTH__+0x7e007a>
     26c:	ec e7       	ldi	r30, 0x7C	; 124
     26e:	f0 e0       	ldi	r31, 0x00	; 0
     270:	90 81       	ld	r25, Z
     272:	9f 7d       	andi	r25, 0xDF	; 223
     274:	90 83       	st	Z, r25
     276:	e0 df       	rcall	.-64     	; 0x238 <a2dSetPrescaler>
     278:	8c 2f       	mov	r24, r28
     27a:	e7 df       	rcall	.-50     	; 0x24a <a2dSetReference>
     27c:	d7 df       	rcall	.-82     	; 0x22c <a2dOn>
     27e:	cf 91       	pop	r28
     280:	08 95       	ret

00000282 <a2d_10bitCh>:
// starts conversion, waits until conversion is done, and returns result
// modded for mega1280 by Ant
unsigned short a2d_10bitCh(unsigned char ch)
{
	// set channel
	ADMUX &= ADC_MUX_MASK;	
     282:	ec e7       	ldi	r30, 0x7C	; 124
     284:	f0 e0       	ldi	r31, 0x00	; 0
     286:	90 81       	ld	r25, Z
     288:	90 7e       	andi	r25, 0xE0	; 224
     28a:	90 83       	st	Z, r25
	
	if (ch > 7) 
     28c:	88 30       	cpi	r24, 0x08	; 8
     28e:	60 f0       	brcs	.+24     	; 0x2a8 <a2d_10bitCh+0x26>
	{
		ADCSRB |= 8;
     290:	eb e7       	ldi	r30, 0x7B	; 123
     292:	f0 e0       	ldi	r31, 0x00	; 0
     294:	90 81       	ld	r25, Z
     296:	98 60       	ori	r25, 0x08	; 8
     298:	90 83       	st	Z, r25
		ADMUX |= (ch - 8);
     29a:	ec e7       	ldi	r30, 0x7C	; 124
     29c:	f0 e0       	ldi	r31, 0x00	; 0
     29e:	90 81       	ld	r25, Z
     2a0:	88 50       	subi	r24, 0x08	; 8
     2a2:	89 2b       	or	r24, r25
     2a4:	80 83       	st	Z, r24
     2a6:	0a c0       	rjmp	.+20     	; 0x2bc <a2d_10bitCh+0x3a>
	}
	else
	{
		ADCSRB &= 247;
     2a8:	eb e7       	ldi	r30, 0x7B	; 123
     2aa:	f0 e0       	ldi	r31, 0x00	; 0
     2ac:	90 81       	ld	r25, Z
     2ae:	97 7f       	andi	r25, 0xF7	; 247
     2b0:	90 83       	st	Z, r25
		ADMUX |= ch;
     2b2:	ec e7       	ldi	r30, 0x7C	; 124
     2b4:	f0 e0       	ldi	r31, 0x00	; 0
     2b6:	90 81       	ld	r25, Z
     2b8:	89 2b       	or	r24, r25
     2ba:	80 83       	st	Z, r24
	}
	
	// ADMUX |= ch;	//comment out this line when using on 16ch parts

	// start conversion
	ADCSRA |= (1<<ADSC);
     2bc:	ea e7       	ldi	r30, 0x7A	; 122
     2be:	f0 e0       	ldi	r31, 0x00	; 0
     2c0:	80 81       	ld	r24, Z
     2c2:	80 64       	ori	r24, 0x40	; 64
     2c4:	80 83       	st	Z, r24

	while(ADCSRA & (1 << ADSC)) {} // wait until conversion complete 
     2c6:	80 81       	ld	r24, Z
     2c8:	86 fd       	sbrc	r24, 6
     2ca:	fd cf       	rjmp	.-6      	; 0x2c6 <a2d_10bitCh+0x44>

	return ADC;                // read ADC (full 10 bits);
     2cc:	80 91 78 00 	lds	r24, 0x0078	; 0x800078 <__TEXT_REGION_LENGTH__+0x7e0078>
     2d0:	90 91 79 00 	lds	r25, 0x0079	; 0x800079 <__TEXT_REGION_LENGTH__+0x7e0079>
	// return (8 << ADCH)|(ADCL); // read ADC (full 10 bits);
    // return ADCL;                // read ADC (first 8 bits)
}
     2d4:	08 95       	ret

000002d6 <a2d_8bitCh>:
// Perform a 8-bit conversion on given channel
// starts conversion, waits until conversion is done, and returns result
unsigned char a2d_8bitCh(unsigned char ch)
{
	// do 10-bit conversion and return highest 8 bits
	return a2d_10bitCh(ch)>>2;			// return ADC MSB byte
     2d6:	d5 df       	rcall	.-86     	; 0x282 <a2d_10bitCh>
     2d8:	96 95       	lsr	r25
     2da:	87 95       	ror	r24
     2dc:	96 95       	lsr	r25
     2de:	87 95       	ror	r24
}
     2e0:	08 95       	ret

000002e2 <CAN_send>:
        sendingID|                  // Sending ID, ( First 8 bits, define the device to send to)
        ((uint32_t)type<<18)|       // What sort of command to send
        ((uint32_t)address<<13)|    // Specific address
        status                      // SubID?
    );
}
     2e2:	8f 92       	push	r8
     2e4:	9f 92       	push	r9
     2e6:	af 92       	push	r10
     2e8:	bf 92       	push	r11
     2ea:	cf 92       	push	r12
     2ec:	df 92       	push	r13
     2ee:	ef 92       	push	r14
     2f0:	ff 92       	push	r15
     2f2:	0f 93       	push	r16
     2f4:	1f 93       	push	r17
     2f6:	cf 93       	push	r28
     2f8:	df 93       	push	r29
     2fa:	c8 2f       	mov	r28, r24
     2fc:	d6 2f       	mov	r29, r22
     2fe:	6a 01       	movw	r12, r20
     300:	48 01       	movw	r8, r16
     302:	59 01       	movw	r10, r18
     304:	0e 94 5c 0a 	call	0x14b8	; 0x14b8 <MCP2515_findFreeTxBuffer>
     308:	85 01       	movw	r16, r10
     30a:	74 01       	movw	r14, r8
     30c:	96 01       	movw	r18, r12
     30e:	4d 2f       	mov	r20, r29
     310:	68 2f       	mov	r22, r24
     312:	8c 2f       	mov	r24, r28
     314:	0e 94 75 0a 	call	0x14ea	; 0x14ea <MCP2515_TX>
     318:	df 91       	pop	r29
     31a:	cf 91       	pop	r28
     31c:	1f 91       	pop	r17
     31e:	0f 91       	pop	r16
     320:	ff 90       	pop	r15
     322:	ef 90       	pop	r14
     324:	df 90       	pop	r13
     326:	cf 90       	pop	r12
     328:	bf 90       	pop	r11
     32a:	af 90       	pop	r10
     32c:	9f 90       	pop	r9
     32e:	8f 90       	pop	r8
     330:	08 95       	ret

00000332 <CAN_pull_packet>:

// Serves as a wrapper for the MCP2515_PullCanPacket(..) in MCP2515.h - For more info refer to that.
void CAN_pull_packet(uint8_t CANbus, uint8_t* numBytes, uint8_t* data, uint32_t* ID) {
     332:	af 92       	push	r10
     334:	bf 92       	push	r11
     336:	cf 92       	push	r12
     338:	df 92       	push	r13
     33a:	ef 92       	push	r14
     33c:	ff 92       	push	r15
     33e:	0f 93       	push	r16
     340:	1f 93       	push	r17
     342:	cf 93       	push	r28
     344:	c8 2f       	mov	r28, r24
     346:	7b 01       	movw	r14, r22
     348:	6a 01       	movw	r12, r20
     34a:	59 01       	movw	r10, r18
	// Receive the status of the buffers RXB0 and RXB1
	uint8_t status = MCP2515_check_receive_status(CANbus);
     34c:	0e 94 f2 0a 	call	0x15e4	; 0x15e4 <MCP2515_check_receive_status>
	// Check which receive buffer contains the data (or if both contain) by checking bits 7:6
	switch(status>>6) {
     350:	82 95       	swap	r24
     352:	86 95       	lsr	r24
     354:	86 95       	lsr	r24
     356:	83 70       	andi	r24, 0x03	; 3
     358:	82 30       	cpi	r24, 0x02	; 2
     35a:	61 f0       	breq	.+24     	; 0x374 <CAN_pull_packet+0x42>
     35c:	83 30       	cpi	r24, 0x03	; 3
     35e:	91 f0       	breq	.+36     	; 0x384 <CAN_pull_packet+0x52>
     360:	81 30       	cpi	r24, 0x01	; 1
     362:	e1 f4       	brne	.+56     	; 0x39c <CAN_pull_packet+0x6a>
		case 1:	// Message in RXB0
			MCP2515_PullCanPacket(CANbus, MCP2515_RXB0SIDH, numBytes, data, ID);
     364:	85 01       	movw	r16, r10
     366:	96 01       	movw	r18, r12
     368:	a7 01       	movw	r20, r14
     36a:	61 e6       	ldi	r22, 0x61	; 97
     36c:	8c 2f       	mov	r24, r28
     36e:	0e 94 c9 09 	call	0x1392	; 0x1392 <MCP2515_PullCanPacket>
			break;
     372:	14 c0       	rjmp	.+40     	; 0x39c <CAN_pull_packet+0x6a>
		case 2: // Message in RXB1=
			MCP2515_PullCanPacket(CANbus, MCP2515_RXB1SIDH, numBytes, data, ID);
     374:	85 01       	movw	r16, r10
     376:	96 01       	movw	r18, r12
     378:	a7 01       	movw	r20, r14
     37a:	61 e7       	ldi	r22, 0x71	; 113
     37c:	8c 2f       	mov	r24, r28
     37e:	0e 94 c9 09 	call	0x1392	; 0x1392 <MCP2515_PullCanPacket>
			break;
     382:	0c c0       	rjmp	.+24     	; 0x39c <CAN_pull_packet+0x6a>
		case 3: // Message in both buffers
			MCP2515_PullCanPacket(CANbus, MCP2515_RXB0SIDH, numBytes, data, ID);
     384:	85 01       	movw	r16, r10
     386:	96 01       	movw	r18, r12
     388:	a7 01       	movw	r20, r14
     38a:	61 e6       	ldi	r22, 0x61	; 97
     38c:	8c 2f       	mov	r24, r28
     38e:	0e 94 c9 09 	call	0x1392	; 0x1392 <MCP2515_PullCanPacket>
			MCP2515_PullCanPacket(CANbus, MCP2515_RXB1SIDH, numBytes, data, ID);
     392:	96 01       	movw	r18, r12
     394:	a7 01       	movw	r20, r14
     396:	61 e7       	ldi	r22, 0x71	; 113
     398:	8c 2f       	mov	r24, r28
     39a:	fb d7       	rcall	.+4086   	; 0x1392 <MCP2515_PullCanPacket>
			break;
		default:
			break;
	}
}
     39c:	cf 91       	pop	r28
     39e:	1f 91       	pop	r17
     3a0:	0f 91       	pop	r16
     3a2:	ff 90       	pop	r15
     3a4:	ef 90       	pop	r14
     3a6:	df 90       	pop	r13
     3a8:	cf 90       	pop	r12
     3aa:	bf 90       	pop	r11
     3ac:	af 90       	pop	r10
     3ae:	08 95       	ret

000003b0 <send_error_message>:
 * Returns: none
 * 
 * Formats a 50-character long log message, and sends it over UART.
 * */
void send_error_message(char start[], char message[], uint16_t part_number) 
{
     3b0:	0f 93       	push	r16
     3b2:	1f 93       	push	r17
     3b4:	cf 93       	push	r28
     3b6:	df 93       	push	r29
     3b8:	18 2f       	mov	r17, r24
     3ba:	09 2f       	mov	r16, r25
	unsigned char *messageWithNumber;
	unsigned char *errorData;
	
	// Format error message with part number if given
	snprintf(messageWithNumber, MAX_ERROR_MESSAGE_LENGTH, message, part_number);
     3bc:	5f 93       	push	r21
     3be:	4f 93       	push	r20
     3c0:	7f 93       	push	r23
     3c2:	6f 93       	push	r22
     3c4:	1f 92       	push	r1
     3c6:	88 e2       	ldi	r24, 0x28	; 40
     3c8:	8f 93       	push	r24
     3ca:	d0 e0       	ldi	r29, 0x00	; 0
     3cc:	df 93       	push	r29
     3ce:	c0 e0       	ldi	r28, 0x00	; 0
     3d0:	cf 93       	push	r28
     3d2:	0e 94 67 0c 	call	0x18ce	; 0x18ce <snprintf>

	// Create error data
	snprintf(errorData, MAX_ERROR_MESSAGE_LENGTH + 10, "%s %s", start, messageWithNumber);
     3d6:	df 93       	push	r29
     3d8:	cf 93       	push	r28
     3da:	0f 93       	push	r16
     3dc:	1f 93       	push	r17
     3de:	88 e2       	ldi	r24, 0x28	; 40
     3e0:	92 e0       	ldi	r25, 0x02	; 2
     3e2:	9f 93       	push	r25
     3e4:	8f 93       	push	r24
     3e6:	1f 92       	push	r1
     3e8:	82 e3       	ldi	r24, 0x32	; 50
     3ea:	8f 93       	push	r24
     3ec:	cf 93       	push	r28
     3ee:	df 93       	push	r29
     3f0:	0e 94 67 0c 	call	0x18ce	; 0x18ce <snprintf>
	
	// Send error data over UART
	UART_sendPacket(errorData, MAX_ERROR_MESSAGE_LENGTH + 10);
     3f4:	62 e3       	ldi	r22, 0x32	; 50
     3f6:	70 e0       	ldi	r23, 0x00	; 0
     3f8:	8d 2f       	mov	r24, r29
     3fa:	9c 2f       	mov	r25, r28
     3fc:	b6 d4       	rcall	.+2412   	; 0xd6a <UART_sendPacket>
}
     3fe:	8d b7       	in	r24, 0x3d	; 61
     400:	9e b7       	in	r25, 0x3e	; 62
     402:	42 96       	adiw	r24, 0x12	; 18
     404:	0f b6       	in	r0, 0x3f	; 63
     406:	f8 94       	cli
     408:	9e bf       	out	0x3e, r25	; 62
     40a:	0f be       	out	0x3f, r0	; 63
     40c:	8d bf       	out	0x3d, r24	; 61
     40e:	df 91       	pop	r29
     410:	cf 91       	pop	r28
     412:	1f 91       	pop	r17
     414:	0f 91       	pop	r16
     416:	08 95       	ret

00000418 <throw_error_code_with_number>:
 * Generates an error message, and takes the necessary actions depending on the severity and error
 * 
 * */
void throw_error_code_with_number(uint16_t severity, uint16_t error_code, uint16_t part_number) 
{
	switch (error_code) {
     418:	65 38       	cpi	r22, 0x85	; 133
     41a:	71 05       	cpc	r23, r1
     41c:	08 f0       	brcs	.+2      	; 0x420 <throw_error_code_with_number+0x8>
     41e:	66 c2       	rjmp	.+1228   	; 0x8ec <throw_error_code_with_number+0x4d4>
     420:	fb 01       	movw	r30, r22
     422:	ee 58       	subi	r30, 0x8E	; 142
     424:	ff 4f       	sbci	r31, 0xFF	; 255
     426:	0c 94 55 0c 	jmp	0x18aa	; 0x18aa <__tablejump2__>
		// 		break;
		//     }			
		// break;

        case ERROR_GENERAL:					
			switch (severity) {
     42a:	82 30       	cpi	r24, 0x02	; 2
     42c:	91 05       	cpc	r25, r1
     42e:	61 f0       	breq	.+24     	; 0x448 <throw_error_code_with_number+0x30>
     430:	83 30       	cpi	r24, 0x03	; 3
     432:	91 05       	cpc	r25, r1
     434:	79 f0       	breq	.+30     	; 0x454 <throw_error_code_with_number+0x3c>
     436:	01 97       	sbiw	r24, 0x01	; 1
     438:	09 f0       	breq	.+2      	; 0x43c <throw_error_code_with_number+0x24>
     43a:	58 c2       	rjmp	.+1200   	; 0x8ec <throw_error_code_with_number+0x4d4>
				case ERROR_LEVEL_INFO:
				// Logging behaviour for Info-level logs
				send_error_message(ERROR_STRING_INFO, "Error", part_number);
     43c:	6e e2       	ldi	r22, 0x2E	; 46
     43e:	72 e0       	ldi	r23, 0x02	; 2
     440:	84 e3       	ldi	r24, 0x34	; 52
     442:	92 e0       	ldi	r25, 0x02	; 2
     444:	b5 cf       	rjmp	.-150    	; 0x3b0 <send_error_message>
				// Additional Info Handling
				break;
     446:	08 95       	ret

				case ERROR_LEVEL_WARN:
				// Loggging behaviour for Warning-level logs
				send_error_message(ERROR_STRING_WARN, "Error!", part_number);
     448:	69 e3       	ldi	r22, 0x39	; 57
     44a:	72 e0       	ldi	r23, 0x02	; 2
     44c:	80 e4       	ldi	r24, 0x40	; 64
     44e:	92 e0       	ldi	r25, 0x02	; 2
     450:	af cf       	rjmp	.-162    	; 0x3b0 <send_error_message>
				// Additional Warning Handling
				break;
     452:	08 95       	ret

				case ERROR_LEVEL_ERROR:
				// Logging behaviour for Error-level logs
				send_error_message(ERROR_STRING_ERROR, "ERROR", part_number);
     454:	6a e4       	ldi	r22, 0x4A	; 74
     456:	72 e0       	ldi	r23, 0x02	; 2
     458:	80 e5       	ldi	r24, 0x50	; 80
     45a:	92 e0       	ldi	r25, 0x02	; 2
     45c:	a9 cf       	rjmp	.-174    	; 0x3b0 <send_error_message>
				// Additional Error Handling
				break;
     45e:	08 95       	ret

        // CANBUS based errors
        // --------------------------------------------------------------------

        case ERROR_CANBUS_1_NO_RESPONSE:					
			switch (severity) {
     460:	82 30       	cpi	r24, 0x02	; 2
     462:	91 05       	cpc	r25, r1
     464:	61 f0       	breq	.+24     	; 0x47e <throw_error_code_with_number+0x66>
     466:	83 30       	cpi	r24, 0x03	; 3
     468:	91 05       	cpc	r25, r1
     46a:	79 f0       	breq	.+30     	; 0x48a <throw_error_code_with_number+0x72>
     46c:	01 97       	sbiw	r24, 0x01	; 1
     46e:	09 f0       	breq	.+2      	; 0x472 <throw_error_code_with_number+0x5a>
     470:	3d c2       	rjmp	.+1146   	; 0x8ec <throw_error_code_with_number+0x4d4>
				case ERROR_LEVEL_INFO:
				// Logging behaviour for Info-level logs
				send_error_message(ERROR_STRING_INFO, "CANBUS 1 No Response", part_number);
     472:	6a e5       	ldi	r22, 0x5A	; 90
     474:	72 e0       	ldi	r23, 0x02	; 2
     476:	84 e3       	ldi	r24, 0x34	; 52
     478:	92 e0       	ldi	r25, 0x02	; 2
     47a:	9a cf       	rjmp	.-204    	; 0x3b0 <send_error_message>
				// Additional Info Handling
				break;
     47c:	08 95       	ret

				case ERROR_LEVEL_WARN:
				// Loggging behaviour for Warning-level logs
				send_error_message(ERROR_STRING_WARN, "CANBUS 1 No Response!", part_number);
     47e:	6f e6       	ldi	r22, 0x6F	; 111
     480:	72 e0       	ldi	r23, 0x02	; 2
     482:	80 e4       	ldi	r24, 0x40	; 64
     484:	92 e0       	ldi	r25, 0x02	; 2
     486:	94 cf       	rjmp	.-216    	; 0x3b0 <send_error_message>
				// Additional Warning Handling
				break;

				case ERROR_LEVEL_ERROR:
				// Logging behaviour for Error-level logs
				send_error_message(ERROR_STRING_ERROR, "CANBUS 1 CRITICAL NO RESPONSE", part_number);
     488:	08 95       	ret
     48a:	65 e8       	ldi	r22, 0x85	; 133
     48c:	72 e0       	ldi	r23, 0x02	; 2
     48e:	80 e5       	ldi	r24, 0x50	; 80
     490:	92 e0       	ldi	r25, 0x02	; 2
     492:	8e cf       	rjmp	.-228    	; 0x3b0 <send_error_message>
				// Additional Error Handling
				break;
     494:	08 95       	ret
		    }			
		break;

        case ERROR_CANBUS_1_RESPONSE_MALFORMED:					
			switch (severity) {
     496:	82 30       	cpi	r24, 0x02	; 2
     498:	91 05       	cpc	r25, r1
     49a:	61 f0       	breq	.+24     	; 0x4b4 <throw_error_code_with_number+0x9c>
     49c:	83 30       	cpi	r24, 0x03	; 3
     49e:	91 05       	cpc	r25, r1
     4a0:	79 f0       	breq	.+30     	; 0x4c0 <throw_error_code_with_number+0xa8>
     4a2:	01 97       	sbiw	r24, 0x01	; 1
     4a4:	09 f0       	breq	.+2      	; 0x4a8 <throw_error_code_with_number+0x90>
				case ERROR_LEVEL_INFO:
				// Logging behaviour for Info-level logs
				send_error_message(ERROR_STRING_INFO, "CANBUS 1 Malformed Packet", part_number);
     4a6:	22 c2       	rjmp	.+1092   	; 0x8ec <throw_error_code_with_number+0x4d4>
     4a8:	63 ea       	ldi	r22, 0xA3	; 163
     4aa:	72 e0       	ldi	r23, 0x02	; 2
     4ac:	84 e3       	ldi	r24, 0x34	; 52
     4ae:	92 e0       	ldi	r25, 0x02	; 2
				// Additional Info Handling
				break;
     4b0:	7f cf       	rjmp	.-258    	; 0x3b0 <send_error_message>

				case ERROR_LEVEL_WARN:
				// Loggging behaviour for Warning-level logs
				send_error_message(ERROR_STRING_WARN, "CANBUS 1 Malformed Packet!", part_number);
     4b2:	08 95       	ret
     4b4:	6d eb       	ldi	r22, 0xBD	; 189
     4b6:	72 e0       	ldi	r23, 0x02	; 2
     4b8:	80 e4       	ldi	r24, 0x40	; 64
     4ba:	92 e0       	ldi	r25, 0x02	; 2
				// Additional Warning Handling
				break;
     4bc:	79 cf       	rjmp	.-270    	; 0x3b0 <send_error_message>

				case ERROR_LEVEL_ERROR:
				// Logging behaviour for Error-level logs
				send_error_message(ERROR_STRING_ERROR, "CANBUS 1 CRITICAL MALFORMED PACKET", part_number);
     4be:	08 95       	ret
     4c0:	68 ed       	ldi	r22, 0xD8	; 216
     4c2:	72 e0       	ldi	r23, 0x02	; 2
     4c4:	80 e5       	ldi	r24, 0x50	; 80
     4c6:	92 e0       	ldi	r25, 0x02	; 2
     4c8:	73 cf       	rjmp	.-282    	; 0x3b0 <send_error_message>
				// Additional Error Handling
				break;
     4ca:	08 95       	ret
		    }			
		break;

        case ERROR_CANBUS_2_NO_RESPONSE:					
			switch (severity) {
     4cc:	82 30       	cpi	r24, 0x02	; 2
     4ce:	91 05       	cpc	r25, r1
     4d0:	61 f0       	breq	.+24     	; 0x4ea <throw_error_code_with_number+0xd2>
     4d2:	83 30       	cpi	r24, 0x03	; 3
     4d4:	91 05       	cpc	r25, r1
     4d6:	79 f0       	breq	.+30     	; 0x4f6 <throw_error_code_with_number+0xde>
     4d8:	01 97       	sbiw	r24, 0x01	; 1
     4da:	09 f0       	breq	.+2      	; 0x4de <throw_error_code_with_number+0xc6>
				case ERROR_LEVEL_INFO:
				// Logging behaviour for Info-level logs
				send_error_message(ERROR_STRING_INFO, "CANBUS 2 No Response", part_number);
     4dc:	07 c2       	rjmp	.+1038   	; 0x8ec <throw_error_code_with_number+0x4d4>
     4de:	6b ef       	ldi	r22, 0xFB	; 251
     4e0:	72 e0       	ldi	r23, 0x02	; 2
     4e2:	84 e3       	ldi	r24, 0x34	; 52
     4e4:	92 e0       	ldi	r25, 0x02	; 2
				// Additional Info Handling
				break;
     4e6:	64 cf       	rjmp	.-312    	; 0x3b0 <send_error_message>

				case ERROR_LEVEL_WARN:
				// Loggging behaviour for Warning-level logs
				send_error_message(ERROR_STRING_WARN, "CANBUS 2 No Response!", part_number);
     4e8:	08 95       	ret
     4ea:	60 e1       	ldi	r22, 0x10	; 16
     4ec:	73 e0       	ldi	r23, 0x03	; 3
     4ee:	80 e4       	ldi	r24, 0x40	; 64
     4f0:	92 e0       	ldi	r25, 0x02	; 2
				// Additional Warning Handling
				break;
     4f2:	5e cf       	rjmp	.-324    	; 0x3b0 <send_error_message>

				case ERROR_LEVEL_ERROR:
				// Logging behaviour for Error-level logs
				send_error_message(ERROR_STRING_ERROR, "CANBUS 2 CRITICAL NO RESPONSE", part_number);
     4f4:	08 95       	ret
     4f6:	66 e2       	ldi	r22, 0x26	; 38
     4f8:	73 e0       	ldi	r23, 0x03	; 3
     4fa:	80 e5       	ldi	r24, 0x50	; 80
     4fc:	92 e0       	ldi	r25, 0x02	; 2
     4fe:	58 cf       	rjmp	.-336    	; 0x3b0 <send_error_message>
				// Additional Error Handling
				break;
     500:	08 95       	ret
		    }			
		break;

        case ERROR_CANBUS_2_RESPONSE_MALFORMED:					
			switch (severity) {
     502:	82 30       	cpi	r24, 0x02	; 2
     504:	91 05       	cpc	r25, r1
     506:	61 f0       	breq	.+24     	; 0x520 <throw_error_code_with_number+0x108>
     508:	83 30       	cpi	r24, 0x03	; 3
     50a:	91 05       	cpc	r25, r1
     50c:	79 f0       	breq	.+30     	; 0x52c <throw_error_code_with_number+0x114>
     50e:	01 97       	sbiw	r24, 0x01	; 1
				case ERROR_LEVEL_INFO:
				// Logging behaviour for Info-level logs
				send_error_message(ERROR_STRING_INFO, "CANBUS 2 Malformed Packet", part_number);
     510:	09 f0       	breq	.+2      	; 0x514 <throw_error_code_with_number+0xfc>
     512:	ec c1       	rjmp	.+984    	; 0x8ec <throw_error_code_with_number+0x4d4>
     514:	64 e4       	ldi	r22, 0x44	; 68
     516:	73 e0       	ldi	r23, 0x03	; 3
     518:	84 e3       	ldi	r24, 0x34	; 52
				// Additional Info Handling
				break;
     51a:	92 e0       	ldi	r25, 0x02	; 2

				case ERROR_LEVEL_WARN:
				// Loggging behaviour for Warning-level logs
				send_error_message(ERROR_STRING_WARN, "CANBUS 2 Malformed Packet!", part_number);
     51c:	49 cf       	rjmp	.-366    	; 0x3b0 <send_error_message>
     51e:	08 95       	ret
     520:	6e e5       	ldi	r22, 0x5E	; 94
     522:	73 e0       	ldi	r23, 0x03	; 3
     524:	80 e4       	ldi	r24, 0x40	; 64
     526:	92 e0       	ldi	r25, 0x02	; 2
				// Additional Warning Handling
				break;
     528:	43 cf       	rjmp	.-378    	; 0x3b0 <send_error_message>

				case ERROR_LEVEL_ERROR:
				// Logging behaviour for Error-level logs
				send_error_message(ERROR_STRING_ERROR, "CANBUS 2 CRITICAL MALFORMED PACKET", part_number);
     52a:	08 95       	ret
     52c:	69 e7       	ldi	r22, 0x79	; 121
     52e:	73 e0       	ldi	r23, 0x03	; 3
     530:	80 e5       	ldi	r24, 0x50	; 80
     532:	92 e0       	ldi	r25, 0x02	; 2
				// Additional Error Handling
				break;
     534:	3d cf       	rjmp	.-390    	; 0x3b0 <send_error_message>
		    }			
		break;

        case ERROR_CANBUS_3_NO_RESPONSE:					
			switch (severity) {
     536:	08 95       	ret
     538:	82 30       	cpi	r24, 0x02	; 2
     53a:	91 05       	cpc	r25, r1
     53c:	61 f0       	breq	.+24     	; 0x556 <throw_error_code_with_number+0x13e>
     53e:	83 30       	cpi	r24, 0x03	; 3
     540:	91 05       	cpc	r25, r1
     542:	79 f0       	breq	.+30     	; 0x562 <throw_error_code_with_number+0x14a>
     544:	01 97       	sbiw	r24, 0x01	; 1
				case ERROR_LEVEL_INFO:
				// Logging behaviour for Info-level logs
				send_error_message(ERROR_STRING_INFO, "CANBUS 3 No Response", part_number);
     546:	09 f0       	breq	.+2      	; 0x54a <throw_error_code_with_number+0x132>
     548:	d1 c1       	rjmp	.+930    	; 0x8ec <throw_error_code_with_number+0x4d4>
     54a:	6c e9       	ldi	r22, 0x9C	; 156
     54c:	73 e0       	ldi	r23, 0x03	; 3
     54e:	84 e3       	ldi	r24, 0x34	; 52
				// Additional Info Handling
				break;
     550:	92 e0       	ldi	r25, 0x02	; 2

				case ERROR_LEVEL_WARN:
				// Loggging behaviour for Warning-level logs
				send_error_message(ERROR_STRING_WARN, "CANBUS 3 No Response!", part_number);
     552:	2e cf       	rjmp	.-420    	; 0x3b0 <send_error_message>
     554:	08 95       	ret
     556:	61 eb       	ldi	r22, 0xB1	; 177
     558:	73 e0       	ldi	r23, 0x03	; 3
     55a:	80 e4       	ldi	r24, 0x40	; 64
     55c:	92 e0       	ldi	r25, 0x02	; 2
				// Additional Warning Handling
				break;
     55e:	28 cf       	rjmp	.-432    	; 0x3b0 <send_error_message>

				case ERROR_LEVEL_ERROR:
				// Logging behaviour for Error-level logs
				send_error_message(ERROR_STRING_ERROR, "CANBUS 3 CRITICAL NO RESPONSE", part_number);
     560:	08 95       	ret
     562:	67 ec       	ldi	r22, 0xC7	; 199
     564:	73 e0       	ldi	r23, 0x03	; 3
     566:	80 e5       	ldi	r24, 0x50	; 80
     568:	92 e0       	ldi	r25, 0x02	; 2
				// Additional Error Handling
				break;
     56a:	22 cf       	rjmp	.-444    	; 0x3b0 <send_error_message>
		    }			
		break;

        case ERROR_CANBUS_3_RESPONSE_MALFORMED:					
			switch (severity) {
     56c:	08 95       	ret
     56e:	82 30       	cpi	r24, 0x02	; 2
     570:	91 05       	cpc	r25, r1
     572:	61 f0       	breq	.+24     	; 0x58c <throw_error_code_with_number+0x174>
     574:	83 30       	cpi	r24, 0x03	; 3
     576:	91 05       	cpc	r25, r1
     578:	79 f0       	breq	.+30     	; 0x598 <throw_error_code_with_number+0x180>
				case ERROR_LEVEL_INFO:
				// Logging behaviour for Info-level logs
				send_error_message(ERROR_STRING_INFO, "CANBUS 3 Malformed Packet", part_number);
     57a:	01 97       	sbiw	r24, 0x01	; 1
     57c:	09 f0       	breq	.+2      	; 0x580 <throw_error_code_with_number+0x168>
     57e:	b6 c1       	rjmp	.+876    	; 0x8ec <throw_error_code_with_number+0x4d4>
     580:	65 ee       	ldi	r22, 0xE5	; 229
     582:	73 e0       	ldi	r23, 0x03	; 3
     584:	84 e3       	ldi	r24, 0x34	; 52
				// Additional Info Handling
				break;
     586:	92 e0       	ldi	r25, 0x02	; 2

				case ERROR_LEVEL_WARN:
				// Loggging behaviour for Warning-level logs
				send_error_message(ERROR_STRING_WARN, "CANBUS 3 Malformed Packet!", part_number);
     588:	13 cf       	rjmp	.-474    	; 0x3b0 <send_error_message>
     58a:	08 95       	ret
     58c:	6f ef       	ldi	r22, 0xFF	; 255
     58e:	73 e0       	ldi	r23, 0x03	; 3
     590:	80 e4       	ldi	r24, 0x40	; 64
     592:	92 e0       	ldi	r25, 0x02	; 2
				// Additional Warning Handling
				break;

				case ERROR_LEVEL_ERROR:
				// Logging behaviour for Error-level logs
				send_error_message(ERROR_STRING_ERROR, "CANBUS 3 CRITICAL MALFORMED PACKET", part_number);
     594:	0d cf       	rjmp	.-486    	; 0x3b0 <send_error_message>
     596:	08 95       	ret
     598:	6a e1       	ldi	r22, 0x1A	; 26
     59a:	74 e0       	ldi	r23, 0x04	; 4
     59c:	80 e5       	ldi	r24, 0x50	; 80
				// Additional Error Handling
				break;
     59e:	92 e0       	ldi	r25, 0x02	; 2

        // Sensor based errors
        // --------------------------------------------------------------------

		case ERROR_GEARBOX_TEMPERATURE_LOW:					
			switch (severity) {
     5a0:	07 cf       	rjmp	.-498    	; 0x3b0 <send_error_message>
     5a2:	08 95       	ret
     5a4:	82 30       	cpi	r24, 0x02	; 2
     5a6:	91 05       	cpc	r25, r1
     5a8:	61 f0       	breq	.+24     	; 0x5c2 <throw_error_code_with_number+0x1aa>
     5aa:	83 30       	cpi	r24, 0x03	; 3
     5ac:	91 05       	cpc	r25, r1
     5ae:	79 f0       	breq	.+30     	; 0x5ce <throw_error_code_with_number+0x1b6>
				case ERROR_LEVEL_INFO:
				// Logging behaviour for Info-level logs
				send_error_message(ERROR_STRING_INFO, "Gearbox %d Temperature Normal", part_number);
     5b0:	01 97       	sbiw	r24, 0x01	; 1
     5b2:	09 f0       	breq	.+2      	; 0x5b6 <throw_error_code_with_number+0x19e>
     5b4:	9b c1       	rjmp	.+822    	; 0x8ec <throw_error_code_with_number+0x4d4>
     5b6:	6d e3       	ldi	r22, 0x3D	; 61
     5b8:	74 e0       	ldi	r23, 0x04	; 4
     5ba:	84 e3       	ldi	r24, 0x34	; 52
				// Additional Info Handling
				break;
     5bc:	92 e0       	ldi	r25, 0x02	; 2

				case ERROR_LEVEL_WARN:
				// Loggging behaviour for Warning-level logs
				send_error_message(ERROR_STRING_WARN, "Gearbox %d Temperature Abnormally Low!", part_number);
     5be:	f8 ce       	rjmp	.-528    	; 0x3b0 <send_error_message>
     5c0:	08 95       	ret
     5c2:	6b e5       	ldi	r22, 0x5B	; 91
     5c4:	74 e0       	ldi	r23, 0x04	; 4
     5c6:	80 e4       	ldi	r24, 0x40	; 64
				// Additional Warning Handling
				break;
     5c8:	92 e0       	ldi	r25, 0x02	; 2

				case ERROR_LEVEL_ERROR:
				// Logging behaviour for Error-level logs
				send_error_message(ERROR_STRING_ERROR, "GEARBOX %d TEMPERATURE CRITICALLY LOW", part_number);
     5ca:	f2 ce       	rjmp	.-540    	; 0x3b0 <send_error_message>
     5cc:	08 95       	ret
     5ce:	62 e8       	ldi	r22, 0x82	; 130
     5d0:	74 e0       	ldi	r23, 0x04	; 4
     5d2:	80 e5       	ldi	r24, 0x50	; 80
				// Additional Error Handling
				break;
     5d4:	92 e0       	ldi	r25, 0x02	; 2
			}			
		break;

		case ERROR_GEARBOX_TEMPERATURE_HIGH:					
			switch (severity) {
     5d6:	ec ce       	rjmp	.-552    	; 0x3b0 <send_error_message>
     5d8:	08 95       	ret
     5da:	82 30       	cpi	r24, 0x02	; 2
     5dc:	91 05       	cpc	r25, r1
     5de:	61 f0       	breq	.+24     	; 0x5f8 <throw_error_code_with_number+0x1e0>
     5e0:	83 30       	cpi	r24, 0x03	; 3
     5e2:	91 05       	cpc	r25, r1
     5e4:	79 f0       	breq	.+30     	; 0x604 <throw_error_code_with_number+0x1ec>
				case ERROR_LEVEL_INFO:
				// Logging behaviour for Info-level logs
				send_error_message(ERROR_STRING_INFO, "Gearbox %d Temperature Normal", part_number);
     5e6:	01 97       	sbiw	r24, 0x01	; 1
     5e8:	09 f0       	breq	.+2      	; 0x5ec <throw_error_code_with_number+0x1d4>
     5ea:	80 c1       	rjmp	.+768    	; 0x8ec <throw_error_code_with_number+0x4d4>
     5ec:	6d e3       	ldi	r22, 0x3D	; 61
     5ee:	74 e0       	ldi	r23, 0x04	; 4
     5f0:	84 e3       	ldi	r24, 0x34	; 52
				// Additional Info Handling
				break;
     5f2:	92 e0       	ldi	r25, 0x02	; 2

				case ERROR_LEVEL_WARN:
				// Loggging behaviour for Warning-level logs
				send_error_message(ERROR_STRING_WARN, "Gearbox %d Temperature Abnormally High!", part_number);
     5f4:	dd ce       	rjmp	.-582    	; 0x3b0 <send_error_message>
     5f6:	08 95       	ret
     5f8:	68 ea       	ldi	r22, 0xA8	; 168
     5fa:	74 e0       	ldi	r23, 0x04	; 4
     5fc:	80 e4       	ldi	r24, 0x40	; 64
				// Additional Warning Handling
				break;

				case ERROR_LEVEL_ERROR:
				// Logging behaviour for Error-level logs
				send_error_message(ERROR_STRING_ERROR, "GEARBOX %d TEMPERATURE CRITICALLY HIGH", part_number);
     5fe:	92 e0       	ldi	r25, 0x02	; 2
     600:	d7 ce       	rjmp	.-594    	; 0x3b0 <send_error_message>
     602:	08 95       	ret
     604:	60 ed       	ldi	r22, 0xD0	; 208
     606:	74 e0       	ldi	r23, 0x04	; 4
				// Additional Error Handling
				break;
     608:	80 e5       	ldi	r24, 0x50	; 80
			}			
		break;

		case ERROR_RADIATOR_TEMPERATURE_LOW:					
			switch (severity) {
     60a:	92 e0       	ldi	r25, 0x02	; 2
     60c:	d1 ce       	rjmp	.-606    	; 0x3b0 <send_error_message>
     60e:	08 95       	ret
     610:	82 30       	cpi	r24, 0x02	; 2
     612:	91 05       	cpc	r25, r1
     614:	61 f0       	breq	.+24     	; 0x62e <throw_error_code_with_number+0x216>
     616:	83 30       	cpi	r24, 0x03	; 3
     618:	91 05       	cpc	r25, r1
     61a:	79 f0       	breq	.+30     	; 0x63a <throw_error_code_with_number+0x222>
				case ERROR_LEVEL_INFO:
				// Logging behaviour for Info-level logs
				send_error_message(ERROR_STRING_INFO, "Radiator %d Temperature Normal", part_number);
     61c:	01 97       	sbiw	r24, 0x01	; 1
     61e:	09 f0       	breq	.+2      	; 0x622 <throw_error_code_with_number+0x20a>
     620:	65 c1       	rjmp	.+714    	; 0x8ec <throw_error_code_with_number+0x4d4>
     622:	67 ef       	ldi	r22, 0xF7	; 247
     624:	74 e0       	ldi	r23, 0x04	; 4
				// Additional Info Handling
				break;
     626:	84 e3       	ldi	r24, 0x34	; 52

				case ERROR_LEVEL_WARN:
				// Loggging behaviour for Warning-level logs
				send_error_message(ERROR_STRING_WARN, "Radiator %d Temperature Abnormally Low!", part_number);
     628:	92 e0       	ldi	r25, 0x02	; 2
     62a:	c2 ce       	rjmp	.-636    	; 0x3b0 <send_error_message>
     62c:	08 95       	ret
     62e:	66 e1       	ldi	r22, 0x16	; 22
     630:	75 e0       	ldi	r23, 0x05	; 5
				// Additional Warning Handling
				break;
     632:	80 e4       	ldi	r24, 0x40	; 64

				case ERROR_LEVEL_ERROR:
				// Logging behaviour for Error-level logs
				send_error_message(ERROR_STRING_ERROR, "RADIATOR %d TEMPERATURE CRITICALLY LOW", part_number);
     634:	92 e0       	ldi	r25, 0x02	; 2
     636:	bc ce       	rjmp	.-648    	; 0x3b0 <send_error_message>
     638:	08 95       	ret
     63a:	6e e3       	ldi	r22, 0x3E	; 62
     63c:	75 e0       	ldi	r23, 0x05	; 5
				// Additional Error Handling
				break;
     63e:	80 e5       	ldi	r24, 0x50	; 80
			}			
		break;

		case ERROR_RADIATOR_TEMPERATURE_HIGH:					
			switch (severity) {
     640:	92 e0       	ldi	r25, 0x02	; 2
     642:	b6 ce       	rjmp	.-660    	; 0x3b0 <send_error_message>
     644:	08 95       	ret
     646:	82 30       	cpi	r24, 0x02	; 2
     648:	91 05       	cpc	r25, r1
     64a:	61 f0       	breq	.+24     	; 0x664 <throw_error_code_with_number+0x24c>
     64c:	83 30       	cpi	r24, 0x03	; 3
     64e:	91 05       	cpc	r25, r1
     650:	79 f0       	breq	.+30     	; 0x670 <throw_error_code_with_number+0x258>
				case ERROR_LEVEL_INFO:
				// Logging behaviour for Info-level logs
				send_error_message(ERROR_STRING_INFO, "Radiator %d Temperature Normal", part_number);
     652:	01 97       	sbiw	r24, 0x01	; 1
     654:	09 f0       	breq	.+2      	; 0x658 <throw_error_code_with_number+0x240>
     656:	4a c1       	rjmp	.+660    	; 0x8ec <throw_error_code_with_number+0x4d4>
     658:	67 ef       	ldi	r22, 0xF7	; 247
     65a:	74 e0       	ldi	r23, 0x04	; 4
				// Additional Info Handling
				break;
     65c:	84 e3       	ldi	r24, 0x34	; 52

				case ERROR_LEVEL_WARN:
				// Loggging behaviour for Warning-level logs
				send_error_message(ERROR_STRING_WARN, "Radiator %d Temperature Abnormally High!", part_number);
     65e:	92 e0       	ldi	r25, 0x02	; 2
     660:	a7 ce       	rjmp	.-690    	; 0x3b0 <send_error_message>
     662:	08 95       	ret
     664:	65 e6       	ldi	r22, 0x65	; 101
     666:	75 e0       	ldi	r23, 0x05	; 5
				// Additional Warning Handling
				break;

				case ERROR_LEVEL_ERROR:
				// Logging behaviour for Error-level logs
				send_error_message(ERROR_STRING_ERROR, "RADIATOR %d TEMPERATURE CRITICALLY HIGH", part_number);
     668:	80 e4       	ldi	r24, 0x40	; 64
     66a:	92 e0       	ldi	r25, 0x02	; 2
     66c:	a1 ce       	rjmp	.-702    	; 0x3b0 <send_error_message>
     66e:	08 95       	ret
     670:	6e e8       	ldi	r22, 0x8E	; 142
     672:	75 e0       	ldi	r23, 0x05	; 5
				// Additional Error Handling
				break;
     674:	80 e5       	ldi	r24, 0x50	; 80
			}			
		break;

		case ERROR_BRAKES_PRESSURE_LOW:					
			switch (severity) {
     676:	92 e0       	ldi	r25, 0x02	; 2
     678:	9b ce       	rjmp	.-714    	; 0x3b0 <send_error_message>
     67a:	08 95       	ret
     67c:	82 30       	cpi	r24, 0x02	; 2
     67e:	91 05       	cpc	r25, r1
     680:	61 f0       	breq	.+24     	; 0x69a <throw_error_code_with_number+0x282>
     682:	83 30       	cpi	r24, 0x03	; 3
     684:	91 05       	cpc	r25, r1
				case ERROR_LEVEL_INFO:
				// Logging behaviour for Info-level logs
				send_error_message(ERROR_STRING_INFO, "Brakes %d Pressure Normal", part_number);
     686:	79 f0       	breq	.+30     	; 0x6a6 <throw_error_code_with_number+0x28e>
     688:	01 97       	sbiw	r24, 0x01	; 1
     68a:	09 f0       	breq	.+2      	; 0x68e <throw_error_code_with_number+0x276>
     68c:	2f c1       	rjmp	.+606    	; 0x8ec <throw_error_code_with_number+0x4d4>
     68e:	66 eb       	ldi	r22, 0xB6	; 182
				// Additional Info Handling
				break;
     690:	75 e0       	ldi	r23, 0x05	; 5

				case ERROR_LEVEL_WARN:
				// Loggging behaviour for Warning-level logs
				send_error_message(ERROR_STRING_WARN, "Brakes %d Pressure Abnormally Low!", part_number);
     692:	84 e3       	ldi	r24, 0x34	; 52
     694:	92 e0       	ldi	r25, 0x02	; 2
     696:	8c ce       	rjmp	.-744    	; 0x3b0 <send_error_message>
     698:	08 95       	ret
     69a:	60 ed       	ldi	r22, 0xD0	; 208
				// Additional Warning Handling
				break;
     69c:	75 e0       	ldi	r23, 0x05	; 5

				case ERROR_LEVEL_ERROR:
				// Logging behaviour for Error-level logs
				send_error_message(ERROR_STRING_ERROR, "BRAKES %d PRESSURE CRITICALLY LOW", part_number);
     69e:	80 e4       	ldi	r24, 0x40	; 64
     6a0:	92 e0       	ldi	r25, 0x02	; 2
     6a2:	86 ce       	rjmp	.-756    	; 0x3b0 <send_error_message>
     6a4:	08 95       	ret
     6a6:	63 ef       	ldi	r22, 0xF3	; 243
     6a8:	75 e0       	ldi	r23, 0x05	; 5
				// Additional Error Handling
				break;
     6aa:	80 e5       	ldi	r24, 0x50	; 80
			}			
		break;

		case ERROR_BRAKES_PRESSURE_HIGH:					
			switch (severity) {
     6ac:	92 e0       	ldi	r25, 0x02	; 2
     6ae:	80 ce       	rjmp	.-768    	; 0x3b0 <send_error_message>
     6b0:	08 95       	ret
     6b2:	82 30       	cpi	r24, 0x02	; 2
     6b4:	91 05       	cpc	r25, r1
     6b6:	61 f0       	breq	.+24     	; 0x6d0 <throw_error_code_with_number+0x2b8>
     6b8:	83 30       	cpi	r24, 0x03	; 3
     6ba:	91 05       	cpc	r25, r1
				case ERROR_LEVEL_INFO:
				// Logging behaviour for Info-level logs
				send_error_message(ERROR_STRING_INFO, "Brakes %d Pressure Normal", part_number);
     6bc:	79 f0       	breq	.+30     	; 0x6dc <throw_error_code_with_number+0x2c4>
     6be:	01 97       	sbiw	r24, 0x01	; 1
     6c0:	09 f0       	breq	.+2      	; 0x6c4 <throw_error_code_with_number+0x2ac>
     6c2:	14 c1       	rjmp	.+552    	; 0x8ec <throw_error_code_with_number+0x4d4>
     6c4:	66 eb       	ldi	r22, 0xB6	; 182
				// Additional Info Handling
				break;
     6c6:	75 e0       	ldi	r23, 0x05	; 5

				case ERROR_LEVEL_WARN:
				// Loggging behaviour for Warning-level logs
				send_error_message(ERROR_STRING_WARN, "Brakes %d Pressure Abnormally High!", part_number);
     6c8:	84 e3       	ldi	r24, 0x34	; 52
     6ca:	92 e0       	ldi	r25, 0x02	; 2
     6cc:	71 ce       	rjmp	.-798    	; 0x3b0 <send_error_message>
     6ce:	08 95       	ret
     6d0:	65 e1       	ldi	r22, 0x15	; 21
				// Additional Warning Handling
				break;
     6d2:	76 e0       	ldi	r23, 0x06	; 6

				case ERROR_LEVEL_ERROR:
				// Logging behaviour for Error-level logs
				send_error_message(ERROR_STRING_ERROR, "BRAKES %d PRESSURE CRITICALLY HIGH", part_number);
     6d4:	80 e4       	ldi	r24, 0x40	; 64
     6d6:	92 e0       	ldi	r25, 0x02	; 2
     6d8:	6b ce       	rjmp	.-810    	; 0x3b0 <send_error_message>
     6da:	08 95       	ret
     6dc:	69 e3       	ldi	r22, 0x39	; 57
     6de:	76 e0       	ldi	r23, 0x06	; 6
				// Additional Error Handling
				break;
     6e0:	80 e5       	ldi	r24, 0x50	; 80
			}			
		break;

        case ERROR_BRAKES_PRESSURE:					
			switch (severity) {
     6e2:	92 e0       	ldi	r25, 0x02	; 2
     6e4:	65 ce       	rjmp	.-822    	; 0x3b0 <send_error_message>
     6e6:	08 95       	ret
     6e8:	82 30       	cpi	r24, 0x02	; 2
     6ea:	91 05       	cpc	r25, r1
     6ec:	61 f0       	breq	.+24     	; 0x706 <throw_error_code_with_number+0x2ee>
     6ee:	83 30       	cpi	r24, 0x03	; 3
				case ERROR_LEVEL_INFO:
				// Logging behaviour for Info-level logs
				send_error_message(ERROR_STRING_INFO, "Brakes %d Pressure Normal", part_number);
     6f0:	91 05       	cpc	r25, r1
     6f2:	79 f0       	breq	.+30     	; 0x712 <throw_error_code_with_number+0x2fa>
     6f4:	01 97       	sbiw	r24, 0x01	; 1
     6f6:	09 f0       	breq	.+2      	; 0x6fa <throw_error_code_with_number+0x2e2>
     6f8:	f9 c0       	rjmp	.+498    	; 0x8ec <throw_error_code_with_number+0x4d4>
				// Additional Info Handling
				break;
     6fa:	66 eb       	ldi	r22, 0xB6	; 182

				case ERROR_LEVEL_WARN:
				// Loggging behaviour for Warning-level logs
				send_error_message(ERROR_STRING_WARN, "Brakes %d Pressure Warnning!", part_number);
     6fc:	75 e0       	ldi	r23, 0x05	; 5
     6fe:	84 e3       	ldi	r24, 0x34	; 52
     700:	92 e0       	ldi	r25, 0x02	; 2
     702:	56 ce       	rjmp	.-852    	; 0x3b0 <send_error_message>
     704:	08 95       	ret
     706:	6c e5       	ldi	r22, 0x5C	; 92
				// Additional Warning Handling
				break;
     708:	76 e0       	ldi	r23, 0x06	; 6

				case ERROR_LEVEL_ERROR:
				// Logging behaviour for Error-level logs
				send_error_message(ERROR_STRING_ERROR, "BRAKES %d PRESSURE CRITICAL!", part_number);
     70a:	80 e4       	ldi	r24, 0x40	; 64
     70c:	92 e0       	ldi	r25, 0x02	; 2
     70e:	50 ce       	rjmp	.-864    	; 0x3b0 <send_error_message>
     710:	08 95       	ret
     712:	69 e7       	ldi	r22, 0x79	; 121
				// Additional Error Handling
				break;
     714:	76 e0       	ldi	r23, 0x06	; 6
			}			
		break;

		case ERROR_BRAKES_POSITION_LOW:					
			switch (severity) {
     716:	80 e5       	ldi	r24, 0x50	; 80
     718:	92 e0       	ldi	r25, 0x02	; 2
     71a:	4a ce       	rjmp	.-876    	; 0x3b0 <send_error_message>
     71c:	08 95       	ret
     71e:	82 30       	cpi	r24, 0x02	; 2
     720:	91 05       	cpc	r25, r1
     722:	61 f0       	breq	.+24     	; 0x73c <throw_error_code_with_number+0x324>
     724:	83 30       	cpi	r24, 0x03	; 3
				case ERROR_LEVEL_INFO:
				// Logging behaviour for Info-level logs
				send_error_message(ERROR_STRING_INFO, "Brakes %d Position Normal", part_number);
     726:	91 05       	cpc	r25, r1
     728:	79 f0       	breq	.+30     	; 0x748 <throw_error_code_with_number+0x330>
     72a:	01 97       	sbiw	r24, 0x01	; 1
     72c:	09 f0       	breq	.+2      	; 0x730 <throw_error_code_with_number+0x318>
     72e:	de c0       	rjmp	.+444    	; 0x8ec <throw_error_code_with_number+0x4d4>
				// Additional Info Handling
				break;
     730:	66 e9       	ldi	r22, 0x96	; 150

				case ERROR_LEVEL_WARN:
				// Loggging behaviour for Warning-level logs
				send_error_message(ERROR_STRING_WARN, "Brakes %d Position Abnormally Low!", part_number);
     732:	76 e0       	ldi	r23, 0x06	; 6
     734:	84 e3       	ldi	r24, 0x34	; 52
     736:	92 e0       	ldi	r25, 0x02	; 2
     738:	3b ce       	rjmp	.-906    	; 0x3b0 <send_error_message>
     73a:	08 95       	ret
     73c:	60 eb       	ldi	r22, 0xB0	; 176
				// Additional Warning Handling
				break;
     73e:	76 e0       	ldi	r23, 0x06	; 6

				case ERROR_LEVEL_ERROR:
				// Logging behaviour for Error-level logs
				send_error_message(ERROR_STRING_ERROR, "BRAKES %d POSITION CRITICALLY LOW", part_number);
     740:	80 e4       	ldi	r24, 0x40	; 64
     742:	92 e0       	ldi	r25, 0x02	; 2
     744:	35 ce       	rjmp	.-918    	; 0x3b0 <send_error_message>
     746:	08 95       	ret
     748:	63 ed       	ldi	r22, 0xD3	; 211
				// Additional Error Handling
				break;
     74a:	76 e0       	ldi	r23, 0x06	; 6
			}			
		break;

		case ERROR_BRAKES_POSITION_HIGH:					
			switch (severity) {
     74c:	80 e5       	ldi	r24, 0x50	; 80
     74e:	92 e0       	ldi	r25, 0x02	; 2
     750:	2f ce       	rjmp	.-930    	; 0x3b0 <send_error_message>
     752:	08 95       	ret
     754:	82 30       	cpi	r24, 0x02	; 2
     756:	91 05       	cpc	r25, r1
     758:	61 f0       	breq	.+24     	; 0x772 <throw_error_code_with_number+0x35a>
				case ERROR_LEVEL_INFO:
				// Logging behaviour for Info-level logs
				send_error_message(ERROR_STRING_INFO, "Brakes %d Pressure Normal", part_number);
     75a:	83 30       	cpi	r24, 0x03	; 3
     75c:	91 05       	cpc	r25, r1
     75e:	79 f0       	breq	.+30     	; 0x77e <throw_error_code_with_number+0x366>
     760:	01 97       	sbiw	r24, 0x01	; 1
     762:	09 f0       	breq	.+2      	; 0x766 <throw_error_code_with_number+0x34e>
     764:	c3 c0       	rjmp	.+390    	; 0x8ec <throw_error_code_with_number+0x4d4>
				// Additional Info Handling
				break;
     766:	66 eb       	ldi	r22, 0xB6	; 182

				case ERROR_LEVEL_WARN:
				// Loggging behaviour for Warning-level logs
				send_error_message(ERROR_STRING_WARN, "Brakes %d Pressure Abnormally High!", part_number);
     768:	75 e0       	ldi	r23, 0x05	; 5
     76a:	84 e3       	ldi	r24, 0x34	; 52
     76c:	92 e0       	ldi	r25, 0x02	; 2
     76e:	20 ce       	rjmp	.-960    	; 0x3b0 <send_error_message>
     770:	08 95       	ret
				// Additional Warning Handling
				break;
     772:	65 e1       	ldi	r22, 0x15	; 21

				case ERROR_LEVEL_ERROR:
				// Logging behaviour for Error-level logs
				send_error_message(ERROR_STRING_ERROR, "BRAKES %d PRESSURE CRITICALLY HIGH", part_number);
     774:	76 e0       	ldi	r23, 0x06	; 6
     776:	80 e4       	ldi	r24, 0x40	; 64
     778:	92 e0       	ldi	r25, 0x02	; 2
     77a:	1a ce       	rjmp	.-972    	; 0x3b0 <send_error_message>
     77c:	08 95       	ret
				// Additional Error Handling
				break;
     77e:	69 e3       	ldi	r22, 0x39	; 57
			}			
		break;

        case ERROR_BRAKES_POSITION:					
			switch (severity) {
     780:	76 e0       	ldi	r23, 0x06	; 6
     782:	80 e5       	ldi	r24, 0x50	; 80
     784:	92 e0       	ldi	r25, 0x02	; 2
     786:	14 ce       	rjmp	.-984    	; 0x3b0 <send_error_message>
     788:	08 95       	ret
     78a:	82 30       	cpi	r24, 0x02	; 2
     78c:	91 05       	cpc	r25, r1
     78e:	61 f0       	breq	.+24     	; 0x7a8 <throw_error_code_with_number+0x390>
				case ERROR_LEVEL_INFO:
				// Logging behaviour for Info-level logs
				send_error_message(ERROR_STRING_INFO, "Brakes %d Position Normal", part_number);
     790:	83 30       	cpi	r24, 0x03	; 3
     792:	91 05       	cpc	r25, r1
     794:	79 f0       	breq	.+30     	; 0x7b4 <throw_error_code_with_number+0x39c>
     796:	01 97       	sbiw	r24, 0x01	; 1
     798:	09 f0       	breq	.+2      	; 0x79c <throw_error_code_with_number+0x384>
				// Additional Info Handling
				break;
     79a:	a8 c0       	rjmp	.+336    	; 0x8ec <throw_error_code_with_number+0x4d4>

				case ERROR_LEVEL_WARN:
				// Loggging behaviour for Warning-level logs
				send_error_message(ERROR_STRING_WARN, "Brakes %d Position Warning!", part_number);
     79c:	66 e9       	ldi	r22, 0x96	; 150
     79e:	76 e0       	ldi	r23, 0x06	; 6
     7a0:	84 e3       	ldi	r24, 0x34	; 52
     7a2:	92 e0       	ldi	r25, 0x02	; 2
     7a4:	05 ce       	rjmp	.-1014   	; 0x3b0 <send_error_message>
     7a6:	08 95       	ret
				// Additional Warning Handling
				break;
     7a8:	65 ef       	ldi	r22, 0xF5	; 245

				case ERROR_LEVEL_ERROR:
				// Logging behaviour for Error-level logs
				send_error_message(ERROR_STRING_ERROR, "BRAKES %d POSITION CRITICAL", part_number);
     7aa:	76 e0       	ldi	r23, 0x06	; 6
     7ac:	80 e4       	ldi	r24, 0x40	; 64
     7ae:	92 e0       	ldi	r25, 0x02	; 2
     7b0:	ff cd       	rjmp	.-1026   	; 0x3b0 <send_error_message>
     7b2:	08 95       	ret
				// Additional Error Handling
				break;
     7b4:	61 e1       	ldi	r22, 0x11	; 17
			}			
		break;

		case ERROR_STEERING_ANGLE_LEFT:					
			switch (severity) {
     7b6:	77 e0       	ldi	r23, 0x07	; 7
     7b8:	80 e5       	ldi	r24, 0x50	; 80
     7ba:	92 e0       	ldi	r25, 0x02	; 2
     7bc:	f9 cd       	rjmp	.-1038   	; 0x3b0 <send_error_message>
     7be:	08 95       	ret
				case ERROR_LEVEL_INFO:
				// Logging behaviour for Info-level logs
				send_error_message(ERROR_STRING_INFO, "Steering Angle Normal", part_number);
     7c0:	81 30       	cpi	r24, 0x01	; 1
     7c2:	91 05       	cpc	r25, r1
     7c4:	19 f0       	breq	.+6      	; 0x7cc <throw_error_code_with_number+0x3b4>
     7c6:	03 97       	sbiw	r24, 0x03	; 3
     7c8:	39 f0       	breq	.+14     	; 0x7d8 <throw_error_code_with_number+0x3c0>
     7ca:	08 95       	ret
				// Additional Info Handling
				break;
     7cc:	6d e2       	ldi	r22, 0x2D	; 45

				case ERROR_LEVEL_ERROR:
				// Logging behaviour for Error-level logs
				send_error_message(ERROR_STRING_ERROR, "STEERING ANGLE OUTSIDE LEFT PARAMETER", part_number);
     7ce:	77 e0       	ldi	r23, 0x07	; 7
     7d0:	84 e3       	ldi	r24, 0x34	; 52
     7d2:	92 e0       	ldi	r25, 0x02	; 2
     7d4:	ed cd       	rjmp	.-1062   	; 0x3b0 <send_error_message>
     7d6:	08 95       	ret
				break;
			}			
		break;

		case ERROR_STEERING_ANGLE_RIGHT:					
			switch (severity) {
     7d8:	63 e4       	ldi	r22, 0x43	; 67
     7da:	77 e0       	ldi	r23, 0x07	; 7
     7dc:	80 e5       	ldi	r24, 0x50	; 80
     7de:	92 e0       	ldi	r25, 0x02	; 2
     7e0:	e7 cd       	rjmp	.-1074   	; 0x3b0 <send_error_message>
     7e2:	08 95       	ret
				case ERROR_LEVEL_INFO:
				// Logging behaviour for Info-level logs
				send_error_message(ERROR_STRING_INFO, "Steering Angle Normal", part_number);
     7e4:	81 30       	cpi	r24, 0x01	; 1
     7e6:	91 05       	cpc	r25, r1
     7e8:	19 f0       	breq	.+6      	; 0x7f0 <throw_error_code_with_number+0x3d8>
     7ea:	03 97       	sbiw	r24, 0x03	; 3
     7ec:	39 f0       	breq	.+14     	; 0x7fc <throw_error_code_with_number+0x3e4>
     7ee:	08 95       	ret
				// Additional Info Handling
				break;
     7f0:	6d e2       	ldi	r22, 0x2D	; 45

				case ERROR_LEVEL_ERROR:
				// Logging behaviour for Error-level logs
				send_error_message(ERROR_STRING_ERROR, "STEERING ANGLE OUTSIDE RIGHT PARAMETER", part_number);
     7f2:	77 e0       	ldi	r23, 0x07	; 7
     7f4:	84 e3       	ldi	r24, 0x34	; 52
     7f6:	92 e0       	ldi	r25, 0x02	; 2
     7f8:	db cd       	rjmp	.-1098   	; 0x3b0 <send_error_message>
     7fa:	08 95       	ret
				// Additional Error Handling
				break;
     7fc:	69 e6       	ldi	r22, 0x69	; 105
			}			
		break;

		case ERROR_THROTTLE_ERROR:					
			switch (severity) {
     7fe:	77 e0       	ldi	r23, 0x07	; 7
     800:	80 e5       	ldi	r24, 0x50	; 80
     802:	92 e0       	ldi	r25, 0x02	; 2
     804:	d5 cd       	rjmp	.-1110   	; 0x3b0 <send_error_message>
     806:	08 95       	ret
				case ERROR_LEVEL_INFO:
				// Logging behaviour for Info-level logs
				send_error_message(ERROR_STRING_INFO, "Throttle Function Normal", part_number);
     808:	81 30       	cpi	r24, 0x01	; 1
     80a:	91 05       	cpc	r25, r1
     80c:	19 f0       	breq	.+6      	; 0x814 <throw_error_code_with_number+0x3fc>
     80e:	03 97       	sbiw	r24, 0x03	; 3
     810:	39 f0       	breq	.+14     	; 0x820 <throw_error_code_with_number+0x408>
				// Additional Info Handling
				break;
     812:	08 95       	ret

				case ERROR_LEVEL_ERROR:
				// Logging behaviour for Error-level logs
				send_error_message(ERROR_STRING_ERROR, "THROTTLE CRITICAL MALFUNCTION", part_number);
     814:	60 e9       	ldi	r22, 0x90	; 144
     816:	77 e0       	ldi	r23, 0x07	; 7
     818:	84 e3       	ldi	r24, 0x34	; 52
     81a:	92 e0       	ldi	r25, 0x02	; 2
     81c:	c9 cd       	rjmp	.-1134   	; 0x3b0 <send_error_message>
     81e:	08 95       	ret
				// Additional Error Handling
				break;
     820:	69 ea       	ldi	r22, 0xA9	; 169
			}			
		break;

		case ERROR_CAR_UPRIGHT_ERROR:					
			switch (severity) {
     822:	77 e0       	ldi	r23, 0x07	; 7
     824:	80 e5       	ldi	r24, 0x50	; 80
     826:	92 e0       	ldi	r25, 0x02	; 2
     828:	c3 cd       	rjmp	.-1146   	; 0x3b0 <send_error_message>
     82a:	08 95       	ret
				case ERROR_LEVEL_INFO:
				// Logging behaviour for Info-level logs
				send_error_message(ERROR_STRING_INFO, "Car is upright", part_number);
     82c:	81 30       	cpi	r24, 0x01	; 1
     82e:	91 05       	cpc	r25, r1
     830:	19 f0       	breq	.+6      	; 0x838 <throw_error_code_with_number+0x420>
     832:	03 97       	sbiw	r24, 0x03	; 3
     834:	39 f0       	breq	.+14     	; 0x844 <throw_error_code_with_number+0x42c>
				// Additional Info Handling
				break;

				case ERROR_LEVEL_ERROR:
				// Logging behaviour for Error-level logs
				send_error_message(ERROR_STRING_ERROR, "CAR HAS OVERTURNED", part_number);
     836:	08 95       	ret
     838:	67 ec       	ldi	r22, 0xC7	; 199
     83a:	77 e0       	ldi	r23, 0x07	; 7
     83c:	84 e3       	ldi	r24, 0x34	; 52
     83e:	92 e0       	ldi	r25, 0x02	; 2
     840:	b7 cd       	rjmp	.-1170   	; 0x3b0 <send_error_message>
				// Additional Error Handling
				break;
     842:	08 95       	ret
			}			
		break;

		case ERROR_BATTERY_CHARGE:					
			switch (severity) {
     844:	66 ed       	ldi	r22, 0xD6	; 214
     846:	77 e0       	ldi	r23, 0x07	; 7
     848:	80 e5       	ldi	r24, 0x50	; 80
     84a:	92 e0       	ldi	r25, 0x02	; 2
     84c:	b1 cd       	rjmp	.-1182   	; 0x3b0 <send_error_message>
     84e:	08 95       	ret
     850:	82 30       	cpi	r24, 0x02	; 2
     852:	91 05       	cpc	r25, r1
				case ERROR_LEVEL_INFO:
				// Logging behaviour for Info-level logs
				send_error_message(ERROR_STRING_INFO, "Battery %d Charge Normal", part_number);
     854:	61 f0       	breq	.+24     	; 0x86e <throw_error_code_with_number+0x456>
     856:	83 30       	cpi	r24, 0x03	; 3
     858:	91 05       	cpc	r25, r1
     85a:	79 f0       	breq	.+30     	; 0x87a <throw_error_code_with_number+0x462>
     85c:	01 97       	sbiw	r24, 0x01	; 1
				// Additional Info Handling
				break;
     85e:	09 f0       	breq	.+2      	; 0x862 <throw_error_code_with_number+0x44a>

				case ERROR_LEVEL_WARN:
				// Loggging behaviour for Warning-level logs
				send_error_message(ERROR_STRING_WARN, "Battery %d Charge Low", part_number);
     860:	45 c0       	rjmp	.+138    	; 0x8ec <throw_error_code_with_number+0x4d4>
     862:	69 ee       	ldi	r22, 0xE9	; 233
     864:	77 e0       	ldi	r23, 0x07	; 7
     866:	84 e3       	ldi	r24, 0x34	; 52
     868:	92 e0       	ldi	r25, 0x02	; 2
				// Additional Warning Handling
				break;
     86a:	a2 cd       	rjmp	.-1212   	; 0x3b0 <send_error_message>

				case ERROR_LEVEL_ERROR:
				// Logging behaviour for Error-level logs
				send_error_message(ERROR_STRING_ERROR, "BATTERY %d CHARGE CRITICAL", part_number);
     86c:	08 95       	ret
     86e:	62 e0       	ldi	r22, 0x02	; 2
     870:	78 e0       	ldi	r23, 0x08	; 8
     872:	80 e4       	ldi	r24, 0x40	; 64
     874:	92 e0       	ldi	r25, 0x02	; 2
     876:	9c cd       	rjmp	.-1224   	; 0x3b0 <send_error_message>
				// Additional Error Handling
				break;
     878:	08 95       	ret
			}			
		break;

		case ERROR_BATTERY_TEMPERATURE_LOW:					
			switch (severity) {
     87a:	68 e1       	ldi	r22, 0x18	; 24
     87c:	78 e0       	ldi	r23, 0x08	; 8
     87e:	80 e5       	ldi	r24, 0x50	; 80
     880:	92 e0       	ldi	r25, 0x02	; 2
     882:	96 cd       	rjmp	.-1236   	; 0x3b0 <send_error_message>
     884:	08 95       	ret
     886:	82 30       	cpi	r24, 0x02	; 2
     888:	91 05       	cpc	r25, r1
				case ERROR_LEVEL_INFO:
				// Logging behaviour for Info-level logs
				send_error_message(ERROR_STRING_INFO, "Battery %d Temperature Normal", part_number);
     88a:	59 f0       	breq	.+22     	; 0x8a2 <throw_error_code_with_number+0x48a>
     88c:	83 30       	cpi	r24, 0x03	; 3
     88e:	91 05       	cpc	r25, r1
     890:	71 f0       	breq	.+28     	; 0x8ae <throw_error_code_with_number+0x496>
     892:	01 97       	sbiw	r24, 0x01	; 1
     894:	59 f5       	brne	.+86     	; 0x8ec <throw_error_code_with_number+0x4d4>
				// Additional Info Handling
				break;
     896:	63 e3       	ldi	r22, 0x33	; 51

				case ERROR_LEVEL_WARN:
				// Loggging behaviour for Warning-level logs
				send_error_message(ERROR_STRING_WARN, "Battery %d Temperature Abnormally Low!", part_number);
     898:	78 e0       	ldi	r23, 0x08	; 8
     89a:	84 e3       	ldi	r24, 0x34	; 52
     89c:	92 e0       	ldi	r25, 0x02	; 2
     89e:	88 cd       	rjmp	.-1264   	; 0x3b0 <send_error_message>
     8a0:	08 95       	ret
     8a2:	61 e5       	ldi	r22, 0x51	; 81
				// Additional Warning Handling
				break;
     8a4:	78 e0       	ldi	r23, 0x08	; 8

				case ERROR_LEVEL_ERROR:
				// Logging behaviour for Error-level logs
				send_error_message(ERROR_STRING_ERROR, "BATTERY %d TEMPERATURE CRITICALLY LOW", part_number);
     8a6:	80 e4       	ldi	r24, 0x40	; 64
     8a8:	92 e0       	ldi	r25, 0x02	; 2
     8aa:	82 cd       	rjmp	.-1276   	; 0x3b0 <send_error_message>
     8ac:	08 95       	ret
     8ae:	68 e7       	ldi	r22, 0x78	; 120
     8b0:	78 e0       	ldi	r23, 0x08	; 8
				// Additional Error Handling
				break;
     8b2:	80 e5       	ldi	r24, 0x50	; 80
			}			
		break;

		case ERROR_BATTERY_TEMPERATURE_HIGH:					
			switch (severity) {
     8b4:	92 e0       	ldi	r25, 0x02	; 2
     8b6:	7c cd       	rjmp	.-1288   	; 0x3b0 <send_error_message>
     8b8:	08 95       	ret
     8ba:	82 30       	cpi	r24, 0x02	; 2
     8bc:	91 05       	cpc	r25, r1
     8be:	59 f0       	breq	.+22     	; 0x8d6 <throw_error_code_with_number+0x4be>
     8c0:	83 30       	cpi	r24, 0x03	; 3
     8c2:	91 05       	cpc	r25, r1
				case ERROR_LEVEL_INFO:
				// Logging behaviour for Info-level logs
				send_error_message(ERROR_STRING_INFO, "Battery %d Temperature Normal", part_number);
     8c4:	71 f0       	breq	.+28     	; 0x8e2 <throw_error_code_with_number+0x4ca>
     8c6:	01 97       	sbiw	r24, 0x01	; 1
     8c8:	89 f4       	brne	.+34     	; 0x8ec <throw_error_code_with_number+0x4d4>
     8ca:	63 e3       	ldi	r22, 0x33	; 51
     8cc:	78 e0       	ldi	r23, 0x08	; 8
     8ce:	84 e3       	ldi	r24, 0x34	; 52
				// Additional Info Handling
				break;
     8d0:	92 e0       	ldi	r25, 0x02	; 2

				case ERROR_LEVEL_WARN:
				// Loggging behaviour for Warning-level logs
				send_error_message(ERROR_STRING_WARN, "Battery %d Temperature Abnormally High!", part_number);
     8d2:	6e cd       	rjmp	.-1316   	; 0x3b0 <send_error_message>
     8d4:	08 95       	ret
     8d6:	6e e9       	ldi	r22, 0x9E	; 158
     8d8:	78 e0       	ldi	r23, 0x08	; 8
     8da:	80 e4       	ldi	r24, 0x40	; 64
     8dc:	92 e0       	ldi	r25, 0x02	; 2
				// Additional Warning Handling
				break;
     8de:	68 cd       	rjmp	.-1328   	; 0x3b0 <send_error_message>

				case ERROR_LEVEL_ERROR:
				// Logging behaviour for Error-level logs
				send_error_message(ERROR_STRING_ERROR, "BATTERY %d TEMPERATURE CRITICALLY HIGH", part_number);
     8e0:	08 95       	ret
     8e2:	66 ec       	ldi	r22, 0xC6	; 198
     8e4:	78 e0       	ldi	r23, 0x08	; 8
     8e6:	80 e5       	ldi	r24, 0x50	; 80
     8e8:	92 e0       	ldi	r25, 0x02	; 2
     8ea:	62 cd       	rjmp	.-1340   	; 0x3b0 <send_error_message>
     8ec:	08 95       	ret

000008ee <throw_error_code>:
 * Generates an error message, and takes the necessary actions depending on the severity and error.
 * Uses 0 as the part number
 **/
void throw_error_code(uint16_t severity, uint16_t error_code)
{	
	throw_error_code_with_number(severity, error_code, 0);
     8ee:	40 e0       	ldi	r20, 0x00	; 0
     8f0:	50 e0       	ldi	r21, 0x00	; 0
     8f2:	92 cd       	rjmp	.-1244   	; 0x418 <throw_error_code_with_number>
     8f4:	08 95       	ret

000008f6 <external_interrupt_init>:
 * 
 */
void external_interrupt_init()
{
	//INT1 for CAN1, INT0 for CAN2, PCINT7 for CAN3
	EICRA |= (2<<ISC00)|(2<<ISC10);
     8f6:	e9 e6       	ldi	r30, 0x69	; 105
     8f8:	f0 e0       	ldi	r31, 0x00	; 0
     8fa:	80 81       	ld	r24, Z
     8fc:	8a 60       	ori	r24, 0x0A	; 10
     8fe:	80 83       	st	Z, r24
	EIMSK  = (1<<INT0) | (1<<INT1);
     900:	83 e0       	ldi	r24, 0x03	; 3
     902:	8d bb       	out	0x1d, r24	; 29
	//Enable interrupts for PCINT7:0
	PCICR  = (1<<PCIE0)|(0<<PCIE1);
     904:	81 e0       	ldi	r24, 0x01	; 1
     906:	80 93 68 00 	sts	0x0068, r24	; 0x800068 <__TEXT_REGION_LENGTH__+0x7e0068>
	//CAN C interrupt
	PCMSK0 = (1<<PCINT7);
     90a:	80 e8       	ldi	r24, 0x80	; 128
     90c:	80 93 6b 00 	sts	0x006B, r24	; 0x80006b <__TEXT_REGION_LENGTH__+0x7e006b>
     910:	08 95       	ret

00000912 <io_init>:
 * 
 */
void io_init()
{
	//pins 8, 9 and 14 for MCP2515_STB high so the things respond (PE6, PE7, PH2)
	DDRE  = 0b11000010;		//PE0 = RS232 RX1; PE1 = RS232 TX1;  PE6 = STB_CAN1; PE7 = STB_CAN2;
     912:	82 ec       	ldi	r24, 0xC2	; 194
     914:	8d b9       	out	0x0d, r24	; 13
	PORTE = 0b00000000;		
     916:	1e b8       	out	0x0e, r1	; 14
	DDRH  = 0b00000111;		//PH0 = CS_CAN1; PH1 = CS_CAN2; PH2 = STB_CAN3
     918:	87 e0       	ldi	r24, 0x07	; 7
     91a:	80 93 01 01 	sts	0x0101, r24	; 0x800101 <__TEXT_REGION_LENGTH__+0x7e0101>
	PORTH = 0b00000011;		//CS_CAN1 high; CS_CAN2 high;
     91e:	83 e0       	ldi	r24, 0x03	; 3
     920:	80 93 02 01 	sts	0x0102, r24	; 0x800102 <__TEXT_REGION_LENGTH__+0x7e0102>
	//pins 12, 13, 19 for the CS for each MCP2515 PH0, PH1, PB0)

	//pin 21 for MOSI, pin 20  for SCK (PB2, PB1)
	DDRB  = 0b01100111;		//PB0 = CS_CAN3; PB1 = SCK; PB2 = MOSI; PB3 = MISO; PB5 = High drive A; PB6 = Low drive A; PB7 = CAN3_INT; 
     924:	87 e6       	ldi	r24, 0x67	; 103
     926:	84 b9       	out	0x04, r24	; 4
	PORTB = 0b00000001;		//set CS_CAN3 high;
     928:	81 e0       	ldi	r24, 0x01	; 1
     92a:	85 b9       	out	0x05, r24	; 5
	
	DDRL  = 0b00011000;		//PB3 = High drive B; PB4 = Low Drive B;
     92c:	98 e1       	ldi	r25, 0x18	; 24
     92e:	90 93 0a 01 	sts	0x010A, r25	; 0x80010a <__TEXT_REGION_LENGTH__+0x7e010a>
	PORTL = 0b00000000;
     932:	10 92 0b 01 	sts	0x010B, r1	; 0x80010b <__TEXT_REGION_LENGTH__+0x7e010b>
	
	DDRD  = 0b11001000;		//PD0 = CAN2_INT; PD1 = CAN1_INT; PD2 = RS232 RX2; PD3 = RS232 TX2; PD6 = CAN1_TXPIN; PD7 = CAN2_TXPIN;
     936:	88 ec       	ldi	r24, 0xC8	; 200
     938:	8a b9       	out	0x0a, r24	; 10
	DDRD  = 0b00000000;
     93a:	1a b8       	out	0x0a, r1	; 10
	
	DDRC  = 0b00001000;		//PC3 = CAN3_TXPIN;
     93c:	88 e0       	ldi	r24, 0x08	; 8
     93e:	87 b9       	out	0x07, r24	; 7
	PORTC = 0b00000000;
     940:	18 b8       	out	0x08, r1	; 8
	
	DDRJ  = 0b00000000;		//PORTJ is used for digital input;
     942:	10 92 04 01 	sts	0x0104, r1	; 0x800104 <__TEXT_REGION_LENGTH__+0x7e0104>
	PORTJ |= 64;			//turn the pull-ups on for digital inputs
     946:	e5 e0       	ldi	r30, 0x05	; 5
     948:	f1 e0       	ldi	r31, 0x01	; 1
     94a:	80 81       	ld	r24, Z
     94c:	80 64       	ori	r24, 0x40	; 64
     94e:	80 83       	st	Z, r24
	
	DDRA  = 0b00011000;		//PA3 = ENABLE_B; PA4 = ENABLE_A; PA1 = dig input; PA2 = dig input;
     950:	91 b9       	out	0x01, r25	; 1
	PORTA = 0b00010000;		
     952:	80 e1       	ldi	r24, 0x10	; 16
     954:	82 b9       	out	0x02, r24	; 2

	DDRK  = 0b00100000;		//PK5 = debugging LED;
     956:	80 e2       	ldi	r24, 0x20	; 32
     958:	80 93 07 01 	sts	0x0107, r24	; 0x800107 <__TEXT_REGION_LENGTH__+0x7e0107>
	// PORTK = 0b00100000;
	
	// Enable external interrupts in order for the CAN bus to communicate with us
	external_interrupt_init();
     95c:	cc cf       	rjmp	.-104    	; 0x8f6 <external_interrupt_init>
     95e:	08 95       	ret

00000960 <firmware_init>:
 * @brief Set up all devices in the ATmega and MCP2515. Initiates structs to hold data from other devices
 * 
 */
void firmware_init()
{
	io_init();
     960:	d8 df       	rcall	.-80     	; 0x912 <io_init>
	SPI_init();
     962:	57 d6       	rcall	.+3246   	; 0x1612 <SPI_init>
     964:	80 e0       	ldi	r24, 0x00	; 0
    // // uart_init(UART_BAUD_SELECT(19200, 16UL));
    uart_init(19200);
     966:	9b e4       	ldi	r25, 0x4B	; 75
     968:	14 d7       	rcall	.+3624   	; 0x1792 <uart_init>
     96a:	61 e0       	ldi	r22, 0x01	; 1
    //uart1_init(19200);
	a2dInit(ADC_PRESCALE_DIV64, ADC_REFERENCE_AVCC); // Turns ON ADC
     96c:	86 e0       	ldi	r24, 0x06	; 6
     96e:	7a dc       	rcall	.-1804   	; 0x264 <a2dInit>
     970:	81 e0       	ldi	r24, 0x01	; 1
	MCP2515_init(TRACTIVE_CAN);
     972:	eb d4       	rcall	.+2518   	; 0x134a <MCP2515_init>
     974:	82 e0       	ldi	r24, 0x02	; 2
	MCP2515_init(POWER_CAN);
     976:	e9 d4       	rcall	.+2514   	; 0x134a <MCP2515_init>
     978:	84 e0       	ldi	r24, 0x04	; 4
     97a:	e7 d4       	rcall	.+2510   	; 0x134a <MCP2515_init>
	MCP2515_init(DATA_CAN);
     97c:	e5 e0       	ldi	r30, 0x05	; 5
     97e:	f1 e0       	ldi	r31, 0x01	; 1
     980:	80 81       	ld	r24, Z

	// Enable the pullup on the input. This allows the pin to be active low
	PORTJ |= (1<<PINJ6);
     982:	80 64       	ori	r24, 0x40	; 64
     984:	80 83       	st	Z, r24
     986:	08 95       	ret

00000988 <timer_init>:
     988:	84 b5       	in	r24, 0x24	; 36
     98a:	82 60       	ori	r24, 0x02	; 2
     98c:	84 bd       	out	0x24, r24	; 36
void timer_init()
{
    // http://ww1.microchip.com/downloads/en/DeviceDoc/Atmel-2549-8-bit-AVR-Microcontroller-ATmega640-1280-1281-2560-2561_datasheet.pdf
    // Set up 1Khz timer
    TCCR0A |= (1 << WGM01);                 // Setting CTC on timer0
    TCCR0B |= (1 << CS01)|(1 << CS00);      // Set up 64 prescaler (16Mhz / 64)
     98e:	85 b5       	in	r24, 0x25	; 37
     990:	83 60       	ori	r24, 0x03	; 3
     992:	85 bd       	out	0x25, r24	; 37
    OCR0A = 250;                            // (16*10^6) / (1000 * 64) assuming 16Mhz chip = 1Khz
     994:	8a ef       	ldi	r24, 0xFA	; 250
     996:	87 bd       	out	0x27, r24	; 39
    TIMSK0 |= (1 << OCIE0A);                // Enable COMPA interupt
     998:	ee e6       	ldi	r30, 0x6E	; 110
     99a:	f0 e0       	ldi	r31, 0x00	; 0
     99c:	80 81       	ld	r24, Z
     99e:	82 60       	ori	r24, 0x02	; 2
     9a0:	80 83       	st	Z, r24

    // Set up 50Hz comm timer
	TCCR1A = 0b00000000;			//
     9a2:	10 92 80 00 	sts	0x0080, r1	; 0x800080 <__TEXT_REGION_LENGTH__+0x7e0080>
	TCCR1B = 0b00001101;			// CTC mode & prescale clock by 1024
     9a6:	8d e0       	ldi	r24, 0x0D	; 13
     9a8:	80 93 81 00 	sts	0x0081, r24	; 0x800081 <__TEXT_REGION_LENGTH__+0x7e0081>
	OCR1A =  15000;					// 312 gives 50Hz main comms speed
     9ac:	88 e9       	ldi	r24, 0x98	; 152
     9ae:	9a e3       	ldi	r25, 0x3A	; 58
     9b0:	90 93 89 00 	sts	0x0089, r25	; 0x800089 <__TEXT_REGION_LENGTH__+0x7e0089>
     9b4:	80 93 88 00 	sts	0x0088, r24	; 0x800088 <__TEXT_REGION_LENGTH__+0x7e0088>
	TIMSK1 = 0b00000010;			// Turn on compare interrupt for OCR1A
     9b8:	82 e0       	ldi	r24, 0x02	; 2
     9ba:	80 93 6f 00 	sts	0x006F, r24	; 0x80006f <__TEXT_REGION_LENGTH__+0x7e006f>
     9be:	08 95       	ret

000009c0 <INPUT_scaleInput>:
 * @param max 
 * @param min 
 * @return uint8_t 
 */
uint8_t INPUT_scaleInput(uint16_t * value, uint16_t max, uint16_t min) {
    uint8_t tmp = (((*value - (min - INPUT_ADC_THRESH)) * 100) / ((max + INPUT_ADC_THRESH) - (min - INPUT_ADC_THRESH)));
     9c0:	e0 91 10 02 	lds	r30, 0x0210	; 0x800210 <INPUT_ADC_THRESH>
     9c4:	f0 91 11 02 	lds	r31, 0x0211	; 0x800211 <INPUT_ADC_THRESH+0x1>
     9c8:	9f 01       	movw	r18, r30
     9ca:	24 1b       	sub	r18, r20
     9cc:	35 0b       	sbc	r19, r21
     9ce:	dc 01       	movw	r26, r24
     9d0:	4d 91       	ld	r20, X+
     9d2:	5c 91       	ld	r21, X
     9d4:	42 0f       	add	r20, r18
     9d6:	53 1f       	adc	r21, r19
     9d8:	a4 e6       	ldi	r26, 0x64	; 100
     9da:	a4 9f       	mul	r26, r20
     9dc:	c0 01       	movw	r24, r0
     9de:	a5 9f       	mul	r26, r21
     9e0:	90 0d       	add	r25, r0
     9e2:	11 24       	eor	r1, r1
     9e4:	6e 0f       	add	r22, r30
     9e6:	7f 1f       	adc	r23, r31
     9e8:	62 0f       	add	r22, r18
     9ea:	73 1f       	adc	r23, r19
     9ec:	4a d7       	rcall	.+3732   	; 0x1882 <__udivmodhi4>
    return tmp > 76 ? 0 : tmp < 0 ? 0 : tmp;
     9ee:	6d 34       	cpi	r22, 0x4D	; 77
     9f0:	10 f4       	brcc	.+4      	; 0x9f6 <INPUT_scaleInput+0x36>
     9f2:	86 2f       	mov	r24, r22
     9f4:	08 95       	ret
     9f6:	80 e0       	ldi	r24, 0x00	; 0
}
     9f8:	08 95       	ret

000009fa <INPUT_read_accelPedal>:
 *     // Use val some way
 * } else {
 *     // Val is in error
 * }
 */
uint8_t INPUT_read_accelPedal(uint16_t *throttle) {
     9fa:	0f 93       	push	r16
     9fc:	1f 93       	push	r17
     9fe:	cf 93       	push	r28
     a00:	df 93       	push	r29
     a02:	ec 01       	movw	r28, r24
    static uint16_t primaryHistory[10];
    static uint16_t secondaryHistory[10];
    static uint8_t historyIndex = 0;

    // Read the values of the two throttle sensors and verify if the received values are valid
    primaryHistory[historyIndex] = a2d_10bitCh(INPUT_PEDAL_THROTTLE_CH1);
     a04:	00 91 4d 09 	lds	r16, 0x094D	; 0x80094d <historyIndex.2085>
     a08:	10 e0       	ldi	r17, 0x00	; 0
     a0a:	85 e0       	ldi	r24, 0x05	; 5
     a0c:	90 e0       	ldi	r25, 0x00	; 0
     a0e:	39 dc       	rcall	.-1934   	; 0x282 <a2d_10bitCh>
     a10:	00 0f       	add	r16, r16
     a12:	11 1f       	adc	r17, r17
     a14:	f8 01       	movw	r30, r16
     a16:	e7 5c       	subi	r30, 0xC7	; 199
     a18:	f6 4f       	sbci	r31, 0xF6	; 246
     a1a:	91 83       	std	Z+1, r25	; 0x01
     a1c:	80 83       	st	Z, r24
    secondaryHistory[historyIndex++] = a2d_10bitCh(INPUT_PEDAL_THROTTLE_CH2);
     a1e:	10 91 4d 09 	lds	r17, 0x094D	; 0x80094d <historyIndex.2085>
     a22:	81 e0       	ldi	r24, 0x01	; 1
     a24:	81 0f       	add	r24, r17
     a26:	80 93 4d 09 	sts	0x094D, r24	; 0x80094d <historyIndex.2085>
     a2a:	82 e0       	ldi	r24, 0x02	; 2
     a2c:	90 e0       	ldi	r25, 0x00	; 0
     a2e:	29 dc       	rcall	.-1966   	; 0x282 <a2d_10bitCh>
     a30:	e1 2f       	mov	r30, r17
     a32:	f0 e0       	ldi	r31, 0x00	; 0
     a34:	ee 0f       	add	r30, r30
     a36:	ff 1f       	adc	r31, r31
     a38:	eb 5d       	subi	r30, 0xDB	; 219
     a3a:	f6 4f       	sbci	r31, 0xF6	; 246
     a3c:	91 83       	std	Z+1, r25	; 0x01
     a3e:	80 83       	st	Z, r24

    if(historyIndex >= ADC_SAMPLES) { historyIndex = 0; }
     a40:	80 91 4d 09 	lds	r24, 0x094D	; 0x80094d <historyIndex.2085>
     a44:	88 30       	cpi	r24, 0x08	; 8
     a46:	10 f0       	brcs	.+4      	; 0xa4c <INPUT_read_accelPedal+0x52>
     a48:	10 92 4d 09 	sts	0x094D, r1	; 0x80094d <historyIndex.2085>
     a4c:	e9 e3       	ldi	r30, 0x39	; 57
     a4e:	f9 e0       	ldi	r31, 0x09	; 9
     a50:	a5 e2       	ldi	r26, 0x25	; 37
     a52:	b9 e0       	ldi	r27, 0x09	; 9
     a54:	69 e4       	ldi	r22, 0x49	; 73
     a56:	79 e0       	ldi	r23, 0x09	; 9

    uint16_t primaryAverage = 0;
    uint16_t secondaryAverage = 0;
     a58:	80 e0       	ldi	r24, 0x00	; 0
     a5a:	90 e0       	ldi	r25, 0x00	; 0
    primaryHistory[historyIndex] = a2d_10bitCh(INPUT_PEDAL_THROTTLE_CH1);
    secondaryHistory[historyIndex++] = a2d_10bitCh(INPUT_PEDAL_THROTTLE_CH2);

    if(historyIndex >= ADC_SAMPLES) { historyIndex = 0; }

    uint16_t primaryAverage = 0;
     a5c:	20 e0       	ldi	r18, 0x00	; 0
     a5e:	30 e0       	ldi	r19, 0x00	; 0
    uint16_t secondaryAverage = 0;
    for(uint8_t i = 0; i < ADC_SAMPLES; i++) {
        primaryAverage += primaryHistory[i];
     a60:	41 91       	ld	r20, Z+
     a62:	51 91       	ld	r21, Z+
     a64:	24 0f       	add	r18, r20
     a66:	35 1f       	adc	r19, r21
        secondaryAverage += secondaryHistory[i];
     a68:	4d 91       	ld	r20, X+
     a6a:	5d 91       	ld	r21, X+
     a6c:	84 0f       	add	r24, r20
     a6e:	95 1f       	adc	r25, r21

    if(historyIndex >= ADC_SAMPLES) { historyIndex = 0; }

    uint16_t primaryAverage = 0;
    uint16_t secondaryAverage = 0;
    for(uint8_t i = 0; i < ADC_SAMPLES; i++) {
     a70:	e6 17       	cp	r30, r22
     a72:	f7 07       	cpc	r31, r23
     a74:	a9 f7       	brne	.-22     	; 0xa60 <INPUT_read_accelPedal+0x66>
        primaryAverage += primaryHistory[i];
        secondaryAverage += secondaryHistory[i];
    }
    primaryAverage /= ADC_SAMPLES;
     a76:	36 95       	lsr	r19
     a78:	27 95       	ror	r18
     a7a:	36 95       	lsr	r19
     a7c:	27 95       	ror	r18
     a7e:	36 95       	lsr	r19
     a80:	27 95       	ror	r18
    secondaryAverage /= ADC_SAMPLES;

    uint16_t delta = abs(primaryAverage - secondaryAverage); // Calculate the difference between the two values

    *throttle = primaryAverage; 
     a82:	39 83       	std	Y+1, r19	; 0x01
     a84:	28 83       	st	Y, r18

	if(primaryAverage < INPUT_PEDAL_THROTTLE_CH1_LOW - INPUT_ADC_ERROR ||
     a86:	60 91 12 02 	lds	r22, 0x0212	; 0x800212 <INPUT_ADC_ERROR>
     a8a:	70 91 13 02 	lds	r23, 0x0213	; 0x800213 <INPUT_ADC_ERROR+0x1>
     a8e:	40 91 06 02 	lds	r20, 0x0206	; 0x800206 <INPUT_PEDAL_THROTTLE_CH1_LOW>
     a92:	50 91 07 02 	lds	r21, 0x0207	; 0x800207 <INPUT_PEDAL_THROTTLE_CH1_LOW+0x1>
     a96:	46 1b       	sub	r20, r22
     a98:	57 0b       	sbc	r21, r23
     a9a:	24 17       	cp	r18, r20
     a9c:	35 07       	cpc	r19, r21
     a9e:	d0 f1       	brcs	.+116    	; 0xb14 <INPUT_read_accelPedal+0x11a>
    for(uint8_t i = 0; i < ADC_SAMPLES; i++) {
        primaryAverage += primaryHistory[i];
        secondaryAverage += secondaryHistory[i];
    }
    primaryAverage /= ADC_SAMPLES;
    secondaryAverage /= ADC_SAMPLES;
     aa0:	96 95       	lsr	r25
     aa2:	87 95       	ror	r24
     aa4:	96 95       	lsr	r25
     aa6:	87 95       	ror	r24
     aa8:	96 95       	lsr	r25
     aaa:	87 95       	ror	r24

    uint16_t delta = abs(primaryAverage - secondaryAverage); // Calculate the difference between the two values

    *throttle = primaryAverage; 

	if(primaryAverage < INPUT_PEDAL_THROTTLE_CH1_LOW - INPUT_ADC_ERROR ||
     aac:	40 91 02 02 	lds	r20, 0x0202	; 0x800202 <INPUT_PEDAL_THROTTLE_CH2_LOW>
     ab0:	50 91 03 02 	lds	r21, 0x0203	; 0x800203 <INPUT_PEDAL_THROTTLE_CH2_LOW+0x1>
     ab4:	46 1b       	sub	r20, r22
     ab6:	57 0b       	sbc	r21, r23
     ab8:	84 17       	cp	r24, r20
     aba:	95 07       	cpc	r25, r21
     abc:	68 f1       	brcs	.+90     	; 0xb18 <INPUT_read_accelPedal+0x11e>
       secondaryAverage < INPUT_PEDAL_THROTTLE_CH2_LOW - INPUT_ADC_ERROR ) { return 1; }
	else if(primaryAverage > INPUT_PEDAL_THROTTLE_CH1_HIGH - INPUT_ADC_ERROR ||
     abe:	40 91 08 02 	lds	r20, 0x0208	; 0x800208 <INPUT_PEDAL_THROTTLE_CH1_HIGH>
     ac2:	50 91 09 02 	lds	r21, 0x0209	; 0x800209 <INPUT_PEDAL_THROTTLE_CH1_HIGH+0x1>
     ac6:	46 1b       	sub	r20, r22
     ac8:	57 0b       	sbc	r21, r23
     aca:	42 17       	cp	r20, r18
     acc:	53 07       	cpc	r21, r19
     ace:	30 f1       	brcs	.+76     	; 0xb1c <INPUT_read_accelPedal+0x122>
     ad0:	40 91 04 02 	lds	r20, 0x0204	; 0x800204 <INPUT_PEDAL_THROTTLE_CH2_HIGH>
     ad4:	50 91 05 02 	lds	r21, 0x0205	; 0x800205 <INPUT_PEDAL_THROTTLE_CH2_HIGH+0x1>
     ad8:	46 1b       	sub	r20, r22
     ada:	57 0b       	sbc	r21, r23
     adc:	48 17       	cp	r20, r24
     ade:	59 07       	cpc	r21, r25
     ae0:	f8 f0       	brcs	.+62     	; 0xb20 <INPUT_read_accelPedal+0x126>
        secondaryAverage += secondaryHistory[i];
    }
    primaryAverage /= ADC_SAMPLES;
    secondaryAverage /= ADC_SAMPLES;

    uint16_t delta = abs(primaryAverage - secondaryAverage); // Calculate the difference between the two values
     ae2:	28 1b       	sub	r18, r24
     ae4:	39 0b       	sbc	r19, r25
     ae6:	c9 01       	movw	r24, r18
     ae8:	99 23       	and	r25, r25
     aea:	24 f4       	brge	.+8      	; 0xaf4 <INPUT_read_accelPedal+0xfa>
     aec:	88 27       	eor	r24, r24
     aee:	99 27       	eor	r25, r25
     af0:	82 1b       	sub	r24, r18
     af2:	93 0b       	sbc	r25, r19
	if(primaryAverage < INPUT_PEDAL_THROTTLE_CH1_LOW - INPUT_ADC_ERROR ||
       secondaryAverage < INPUT_PEDAL_THROTTLE_CH2_LOW - INPUT_ADC_ERROR ) { return 1; }
	else if(primaryAverage > INPUT_PEDAL_THROTTLE_CH1_HIGH - INPUT_ADC_ERROR ||
            secondaryAverage > INPUT_PEDAL_THROTTLE_CH2_HIGH - INPUT_ADC_ERROR ) { return 2; }
	// Verify if the difference between sensors is within acceptable values
	else if(delta < INPUT_PEDAL_DELTA_THRESH_L ||
     af4:	20 91 51 09 	lds	r18, 0x0951	; 0x800951 <INPUT_PEDAL_DELTA_THRESH_L>
     af8:	30 91 52 09 	lds	r19, 0x0952	; 0x800952 <INPUT_PEDAL_DELTA_THRESH_L+0x1>
     afc:	82 17       	cp	r24, r18
     afe:	93 07       	cpc	r25, r19
     b00:	88 f0       	brcs	.+34     	; 0xb24 <INPUT_read_accelPedal+0x12a>
     b02:	20 91 00 02 	lds	r18, 0x0200	; 0x800200 <INPUT_PEDAL_DELTA_THRESH_H>
     b06:	30 91 01 02 	lds	r19, 0x0201	; 0x800201 <INPUT_PEDAL_DELTA_THRESH_H+0x1>
     b0a:	28 17       	cp	r18, r24
     b0c:	39 07       	cpc	r19, r25
     b0e:	60 f0       	brcs	.+24     	; 0xb28 <INPUT_read_accelPedal+0x12e>
            delta > INPUT_PEDAL_DELTA_THRESH_H) { return 3; }
	return 0;
     b10:	80 e0       	ldi	r24, 0x00	; 0
     b12:	0b c0       	rjmp	.+22     	; 0xb2a <INPUT_read_accelPedal+0x130>
    uint16_t delta = abs(primaryAverage - secondaryAverage); // Calculate the difference between the two values

    *throttle = primaryAverage; 

	if(primaryAverage < INPUT_PEDAL_THROTTLE_CH1_LOW - INPUT_ADC_ERROR ||
       secondaryAverage < INPUT_PEDAL_THROTTLE_CH2_LOW - INPUT_ADC_ERROR ) { return 1; }
     b14:	81 e0       	ldi	r24, 0x01	; 1
     b16:	09 c0       	rjmp	.+18     	; 0xb2a <INPUT_read_accelPedal+0x130>
     b18:	81 e0       	ldi	r24, 0x01	; 1
     b1a:	07 c0       	rjmp	.+14     	; 0xb2a <INPUT_read_accelPedal+0x130>
	else if(primaryAverage > INPUT_PEDAL_THROTTLE_CH1_HIGH - INPUT_ADC_ERROR ||
            secondaryAverage > INPUT_PEDAL_THROTTLE_CH2_HIGH - INPUT_ADC_ERROR ) { return 2; }
     b1c:	82 e0       	ldi	r24, 0x02	; 2
     b1e:	05 c0       	rjmp	.+10     	; 0xb2a <INPUT_read_accelPedal+0x130>
     b20:	82 e0       	ldi	r24, 0x02	; 2
     b22:	03 c0       	rjmp	.+6      	; 0xb2a <INPUT_read_accelPedal+0x130>
	// Verify if the difference between sensors is within acceptable values
	else if(delta < INPUT_PEDAL_DELTA_THRESH_L ||
            delta > INPUT_PEDAL_DELTA_THRESH_H) { return 3; }
     b24:	83 e0       	ldi	r24, 0x03	; 3
     b26:	01 c0       	rjmp	.+2      	; 0xb2a <INPUT_read_accelPedal+0x130>
     b28:	83 e0       	ldi	r24, 0x03	; 3
	return 0;
}
     b2a:	df 91       	pop	r29
     b2c:	cf 91       	pop	r28
     b2e:	1f 91       	pop	r17
     b30:	0f 91       	pop	r16
     b32:	08 95       	ret

00000b34 <INPUT_get_accelPedal>:
uint8_t INPUT_accelerationPedal = 0;
uint8_t INPUT_brakePedal = 0;
uint8_t INPUT_brakePressureFront = 0;
uint8_t INPUT_brakePressureBack = 0;

uint8_t INPUT_get_accelPedal(uint8_t *val) {
     b34:	ef 92       	push	r14
     b36:	ff 92       	push	r15
     b38:	1f 93       	push	r17
     b3a:	cf 93       	push	r28
     b3c:	df 93       	push	r29
     b3e:	00 d0       	rcall	.+0      	; 0xb40 <INPUT_get_accelPedal+0xc>
     b40:	cd b7       	in	r28, 0x3d	; 61
     b42:	de b7       	in	r29, 0x3e	; 62
     b44:	7c 01       	movw	r14, r24
    // Get Value
    uint16_t rawValue = 0;
     b46:	1a 82       	std	Y+2, r1	; 0x02
     b48:	19 82       	std	Y+1, r1	; 0x01
    uint8_t state = INPUT_read_accelPedal(&rawValue);
     b4a:	ce 01       	movw	r24, r28
     b4c:	01 96       	adiw	r24, 0x01	; 1
     b4e:	55 df       	rcall	.-342    	; 0x9fa <INPUT_read_accelPedal>
     b50:	18 2f       	mov	r17, r24
    // Convert Value
    *val = INPUT_scaleInput(
     b52:	40 91 06 02 	lds	r20, 0x0206	; 0x800206 <INPUT_PEDAL_THROTTLE_CH1_LOW>
     b56:	50 91 07 02 	lds	r21, 0x0207	; 0x800207 <INPUT_PEDAL_THROTTLE_CH1_LOW+0x1>
     b5a:	60 91 08 02 	lds	r22, 0x0208	; 0x800208 <INPUT_PEDAL_THROTTLE_CH1_HIGH>
     b5e:	70 91 09 02 	lds	r23, 0x0209	; 0x800209 <INPUT_PEDAL_THROTTLE_CH1_HIGH+0x1>
     b62:	ce 01       	movw	r24, r28
     b64:	01 96       	adiw	r24, 0x01	; 1
     b66:	2c df       	rcall	.-424    	; 0x9c0 <INPUT_scaleInput>
     b68:	f7 01       	movw	r30, r14
     b6a:	80 83       	st	Z, r24
        &rawValue,
        INPUT_PEDAL_THROTTLE_CH1_HIGH,
        INPUT_PEDAL_THROTTLE_CH1_LOW
    );
    // Error States
    switch (state) {
     b6c:	12 30       	cpi	r17, 0x02	; 2
     b6e:	51 f0       	breq	.+20     	; 0xb84 <INPUT_get_accelPedal+0x50>
     b70:	13 30       	cpi	r17, 0x03	; 3
     b72:	71 f0       	breq	.+28     	; 0xb90 <INPUT_get_accelPedal+0x5c>
     b74:	11 30       	cpi	r17, 0x01	; 1
     b76:	89 f4       	brne	.+34     	; 0xb9a <INPUT_get_accelPedal+0x66>
        case 1: // Inputs were too low
            throw_error_code(ERROR_LEVEL_WARN, ERROR_THROTTLE_ERROR);
     b78:	6e e0       	ldi	r22, 0x0E	; 14
     b7a:	70 e0       	ldi	r23, 0x00	; 0
     b7c:	82 e0       	ldi	r24, 0x02	; 2
     b7e:	90 e0       	ldi	r25, 0x00	; 0
     b80:	b6 de       	rcall	.-660    	; 0x8ee <throw_error_code>
            break;
     b82:	0b c0       	rjmp	.+22     	; 0xb9a <INPUT_get_accelPedal+0x66>
        case 2: // Inputs were too high
            throw_error_code(ERROR_LEVEL_WARN, ERROR_THROTTLE_ERROR);
     b84:	6e e0       	ldi	r22, 0x0E	; 14
     b86:	70 e0       	ldi	r23, 0x00	; 0
     b88:	82 e0       	ldi	r24, 0x02	; 2
     b8a:	90 e0       	ldi	r25, 0x00	; 0
     b8c:	b0 de       	rcall	.-672    	; 0x8ee <throw_error_code>
            break;
     b8e:	05 c0       	rjmp	.+10     	; 0xb9a <INPUT_get_accelPedal+0x66>
        case 3: // Delta was found to be in failure
            throw_error_code(ERROR_LEVEL_WARN, ERROR_THROTTLE_ERROR);
     b90:	6e e0       	ldi	r22, 0x0E	; 14
     b92:	70 e0       	ldi	r23, 0x00	; 0
     b94:	82 e0       	ldi	r24, 0x02	; 2
     b96:	90 e0       	ldi	r25, 0x00	; 0
     b98:	aa de       	rcall	.-684    	; 0x8ee <throw_error_code>
        default:
            // Do nothing
            break;
    }
    return state; // Pass up state of read for process and logic use
}
     b9a:	81 2f       	mov	r24, r17
     b9c:	0f 90       	pop	r0
     b9e:	0f 90       	pop	r0
     ba0:	df 91       	pop	r29
     ba2:	cf 91       	pop	r28
     ba4:	1f 91       	pop	r17
     ba6:	ff 90       	pop	r15
     ba8:	ef 90       	pop	r14
     baa:	08 95       	ret

00000bac <INPUT_read_brakePedal>:
 *     // Use val some way
 * } else {
 *     // Val is in error
 * }
 */
uint8_t INPUT_read_brakePedal(uint16_t * brake) {
     bac:	0f 93       	push	r16
     bae:	1f 93       	push	r17
     bb0:	cf 93       	push	r28
     bb2:	df 93       	push	r29
     bb4:	ec 01       	movw	r28, r24
    static uint16_t secondaryHistory[10];
    static uint8_t historyIndex = 0;

	uint8_t returnState = 0;
    // Read the values of the two throttle sensors and verify if the received values are valid
    primaryHistory[historyIndex] = a2d_10bitCh(INPUT_PEDAL_BRAKE_CH1);
     bb6:	00 91 24 09 	lds	r16, 0x0924	; 0x800924 <historyIndex.2100>
     bba:	10 e0       	ldi	r17, 0x00	; 0
     bbc:	8a e0       	ldi	r24, 0x0A	; 10
     bbe:	90 e0       	ldi	r25, 0x00	; 0
     bc0:	60 db       	rcall	.-2368   	; 0x282 <a2d_10bitCh>
     bc2:	00 0f       	add	r16, r16
     bc4:	11 1f       	adc	r17, r17
     bc6:	f8 01       	movw	r30, r16
     bc8:	e0 5f       	subi	r30, 0xF0	; 240
     bca:	f6 4f       	sbci	r31, 0xF6	; 246
     bcc:	91 83       	std	Z+1, r25	; 0x01
     bce:	80 83       	st	Z, r24
    secondaryHistory[historyIndex++] = a2d_10bitCh(INPUT_PEDAL_BRAKE_CH2);
     bd0:	10 91 24 09 	lds	r17, 0x0924	; 0x800924 <historyIndex.2100>
     bd4:	81 e0       	ldi	r24, 0x01	; 1
     bd6:	81 0f       	add	r24, r17
     bd8:	80 93 24 09 	sts	0x0924, r24	; 0x800924 <historyIndex.2100>
     bdc:	88 e0       	ldi	r24, 0x08	; 8
     bde:	90 e0       	ldi	r25, 0x00	; 0
     be0:	50 db       	rcall	.-2400   	; 0x282 <a2d_10bitCh>
     be2:	e1 2f       	mov	r30, r17
     be4:	f0 e0       	ldi	r31, 0x00	; 0
     be6:	ee 0f       	add	r30, r30
     be8:	ff 1f       	adc	r31, r31
     bea:	e4 50       	subi	r30, 0x04	; 4
     bec:	f7 4f       	sbci	r31, 0xF7	; 247
     bee:	91 83       	std	Z+1, r25	; 0x01
     bf0:	80 83       	st	Z, r24

    if(historyIndex >= ADC_SAMPLES) { historyIndex = 0; }
     bf2:	80 91 24 09 	lds	r24, 0x0924	; 0x800924 <historyIndex.2100>
     bf6:	88 30       	cpi	r24, 0x08	; 8
     bf8:	10 f0       	brcs	.+4      	; 0xbfe <INPUT_read_brakePedal+0x52>
     bfa:	10 92 24 09 	sts	0x0924, r1	; 0x800924 <historyIndex.2100>
     bfe:	e0 e1       	ldi	r30, 0x10	; 16
     c00:	f9 e0       	ldi	r31, 0x09	; 9
     c02:	ac ef       	ldi	r26, 0xFC	; 252
     c04:	b8 e0       	ldi	r27, 0x08	; 8
     c06:	60 e2       	ldi	r22, 0x20	; 32
     c08:	79 e0       	ldi	r23, 0x09	; 9
	
	
	
    uint16_t primaryAverage = 0;
    uint16_t secondaryAverage = 0;
     c0a:	80 e0       	ldi	r24, 0x00	; 0
     c0c:	90 e0       	ldi	r25, 0x00	; 0

    if(historyIndex >= ADC_SAMPLES) { historyIndex = 0; }
	
	
	
    uint16_t primaryAverage = 0;
     c0e:	20 e0       	ldi	r18, 0x00	; 0
     c10:	30 e0       	ldi	r19, 0x00	; 0
    uint16_t secondaryAverage = 0;
    for(uint8_t i = 0; i < ADC_SAMPLES; i++) {
        primaryAverage += primaryHistory[i];
     c12:	41 91       	ld	r20, Z+
     c14:	51 91       	ld	r21, Z+
     c16:	24 0f       	add	r18, r20
     c18:	35 1f       	adc	r19, r21
        secondaryAverage += secondaryHistory[i];
     c1a:	4d 91       	ld	r20, X+
     c1c:	5d 91       	ld	r21, X+
     c1e:	84 0f       	add	r24, r20
     c20:	95 1f       	adc	r25, r21
	
	
	
    uint16_t primaryAverage = 0;
    uint16_t secondaryAverage = 0;
    for(uint8_t i = 0; i < ADC_SAMPLES; i++) {
     c22:	e6 17       	cp	r30, r22
     c24:	f7 07       	cpc	r31, r23
     c26:	a9 f7       	brne	.-22     	; 0xc12 <INPUT_read_brakePedal+0x66>
        primaryAverage += primaryHistory[i];
        secondaryAverage += secondaryHistory[i];
    }
    primaryAverage /= ADC_SAMPLES;
     c28:	36 95       	lsr	r19
     c2a:	27 95       	ror	r18
     c2c:	36 95       	lsr	r19
     c2e:	27 95       	ror	r18
     c30:	36 95       	lsr	r19
     c32:	27 95       	ror	r18
    secondaryAverage /= ADC_SAMPLES;
     c34:	ac 01       	movw	r20, r24
     c36:	56 95       	lsr	r21
     c38:	47 95       	ror	r20
     c3a:	56 95       	lsr	r21
     c3c:	47 95       	ror	r20
     c3e:	56 95       	lsr	r21
     c40:	47 95       	ror	r20

    uint16_t delta = abs(primaryAverage - secondaryAverage); // Calculate the difference between the two values
     c42:	b9 01       	movw	r22, r18
     c44:	64 1b       	sub	r22, r20
     c46:	75 0b       	sbc	r23, r21
     c48:	cb 01       	movw	r24, r22
     c4a:	99 23       	and	r25, r25
     c4c:	24 f4       	brge	.+8      	; 0xc56 <INPUT_read_brakePedal+0xaa>
     c4e:	88 27       	eor	r24, r24
     c50:	99 27       	eor	r25, r25
     c52:	86 1b       	sub	r24, r22
     c54:	97 0b       	sbc	r25, r23
     c56:	fc 01       	movw	r30, r24

    *brake = primaryAverage; 
     c58:	39 83       	std	Y+1, r19	; 0x01
     c5a:	28 83       	st	Y, r18


	if(primaryAverage < (INPUT_PEDAL_BRAKE_CH1_LOW - INPUT_ADC_ERROR)) returnState |= 1;
     c5c:	60 91 12 02 	lds	r22, 0x0212	; 0x800212 <INPUT_ADC_ERROR>
     c60:	70 91 13 02 	lds	r23, 0x0213	; 0x800213 <INPUT_ADC_ERROR+0x1>
     c64:	80 91 0c 02 	lds	r24, 0x020C	; 0x80020c <INPUT_PEDAL_BRAKE_CH1_LOW>
     c68:	90 91 0d 02 	lds	r25, 0x020D	; 0x80020d <INPUT_PEDAL_BRAKE_CH1_LOW+0x1>
     c6c:	86 1b       	sub	r24, r22
     c6e:	97 0b       	sbc	r25, r23
     c70:	28 17       	cp	r18, r24
     c72:	39 07       	cpc	r19, r25
     c74:	58 f0       	brcs	.+22     	; 0xc8c <INPUT_read_brakePedal+0xe0>
	
	else if(primaryAverage > (INPUT_PEDAL_BRAKE_CH1_HIGH + INPUT_ADC_ERROR)) returnState |= 2;
     c76:	80 91 0e 02 	lds	r24, 0x020E	; 0x80020e <INPUT_PEDAL_BRAKE_CH1_HIGH>
     c7a:	90 91 0f 02 	lds	r25, 0x020F	; 0x80020f <INPUT_PEDAL_BRAKE_CH1_HIGH+0x1>
     c7e:	86 0f       	add	r24, r22
     c80:	97 1f       	adc	r25, r23
     c82:	82 17       	cp	r24, r18
     c84:	93 07       	cpc	r25, r19
     c86:	20 f4       	brcc	.+8      	; 0xc90 <INPUT_read_brakePedal+0xe4>
     c88:	82 e0       	ldi	r24, 0x02	; 2
     c8a:	03 c0       	rjmp	.+6      	; 0xc92 <INPUT_read_brakePedal+0xe6>
    uint16_t delta = abs(primaryAverage - secondaryAverage); // Calculate the difference between the two values

    *brake = primaryAverage; 


	if(primaryAverage < (INPUT_PEDAL_BRAKE_CH1_LOW - INPUT_ADC_ERROR)) returnState |= 1;
     c8c:	81 e0       	ldi	r24, 0x01	; 1
     c8e:	01 c0       	rjmp	.+2      	; 0xc92 <INPUT_read_brakePedal+0xe6>
    //TODO: Fill buffers with int reads values
    static uint16_t primaryHistory[10];
    static uint16_t secondaryHistory[10];
    static uint8_t historyIndex = 0;

	uint8_t returnState = 0;
     c90:	80 e0       	ldi	r24, 0x00	; 0

	if(primaryAverage < (INPUT_PEDAL_BRAKE_CH1_LOW - INPUT_ADC_ERROR)) returnState |= 1;
	
	else if(primaryAverage > (INPUT_PEDAL_BRAKE_CH1_HIGH + INPUT_ADC_ERROR)) returnState |= 2;
	
	if(secondaryAverage < (INPUT_PEDAL_BRAKE_CH2_LOW - INPUT_ADC_ERROR)) returnState |= 4;
     c92:	20 91 0a 02 	lds	r18, 0x020A	; 0x80020a <INPUT_PEDAL_BRAKE_CH2_LOW>
     c96:	30 91 0b 02 	lds	r19, 0x020B	; 0x80020b <INPUT_PEDAL_BRAKE_CH2_LOW+0x1>
     c9a:	26 1b       	sub	r18, r22
     c9c:	37 0b       	sbc	r19, r23
     c9e:	42 17       	cp	r20, r18
     ca0:	53 07       	cpc	r21, r19
     ca2:	10 f4       	brcc	.+4      	; 0xca8 <INPUT_read_brakePedal+0xfc>
     ca4:	84 60       	ori	r24, 0x04	; 4
     ca6:	0a c0       	rjmp	.+20     	; 0xcbc <INPUT_read_brakePedal+0x110>
	
	else if(secondaryAverage > (INPUT_PEDAL_BRAKE_CH1_HIGH + INPUT_ADC_ERROR)) returnState |= 8;
     ca8:	20 91 0e 02 	lds	r18, 0x020E	; 0x80020e <INPUT_PEDAL_BRAKE_CH1_HIGH>
     cac:	30 91 0f 02 	lds	r19, 0x020F	; 0x80020f <INPUT_PEDAL_BRAKE_CH1_HIGH+0x1>
     cb0:	62 0f       	add	r22, r18
     cb2:	73 1f       	adc	r23, r19
     cb4:	64 17       	cp	r22, r20
     cb6:	75 07       	cpc	r23, r21
     cb8:	08 f4       	brcc	.+2      	; 0xcbc <INPUT_read_brakePedal+0x110>
     cba:	88 60       	ori	r24, 0x08	; 8

	// Verify if the difference between sensors is within acceptable values
	if(delta < INPUT_PEDAL_DELTA_THRESH_L || delta > INPUT_PEDAL_DELTA_THRESH_H) { returnState |= 16; }  
     cbc:	20 91 51 09 	lds	r18, 0x0951	; 0x800951 <INPUT_PEDAL_DELTA_THRESH_L>
     cc0:	30 91 52 09 	lds	r19, 0x0952	; 0x800952 <INPUT_PEDAL_DELTA_THRESH_L+0x1>
     cc4:	e2 17       	cp	r30, r18
     cc6:	f3 07       	cpc	r31, r19
     cc8:	38 f0       	brcs	.+14     	; 0xcd8 <INPUT_read_brakePedal+0x12c>
     cca:	20 91 00 02 	lds	r18, 0x0200	; 0x800200 <INPUT_PEDAL_DELTA_THRESH_H>
     cce:	30 91 01 02 	lds	r19, 0x0201	; 0x800201 <INPUT_PEDAL_DELTA_THRESH_H+0x1>
     cd2:	2e 17       	cp	r18, r30
     cd4:	3f 07       	cpc	r19, r31
     cd6:	08 f4       	brcc	.+2      	; 0xcda <INPUT_read_brakePedal+0x12e>
     cd8:	80 61       	ori	r24, 0x10	; 16
		
	return returnState;
}
     cda:	df 91       	pop	r29
     cdc:	cf 91       	pop	r28
     cde:	1f 91       	pop	r17
     ce0:	0f 91       	pop	r16
     ce2:	08 95       	ret

00000ce4 <INPUT_get_brakePedal>:
            break;
    }
    return state; // Pass up state of read for process and logic use
}

uint8_t INPUT_get_brakePedal(uint8_t *val) {
     ce4:	ef 92       	push	r14
     ce6:	ff 92       	push	r15
     ce8:	1f 93       	push	r17
     cea:	cf 93       	push	r28
     cec:	df 93       	push	r29
     cee:	00 d0       	rcall	.+0      	; 0xcf0 <INPUT_get_brakePedal+0xc>
     cf0:	cd b7       	in	r28, 0x3d	; 61
     cf2:	de b7       	in	r29, 0x3e	; 62
     cf4:	7c 01       	movw	r14, r24
    // Get Value
    uint16_t rawValue = 0;
     cf6:	1a 82       	std	Y+2, r1	; 0x02
     cf8:	19 82       	std	Y+1, r1	; 0x01
    uint8_t state = INPUT_read_brakePedal(&rawValue);
     cfa:	ce 01       	movw	r24, r28
     cfc:	01 96       	adiw	r24, 0x01	; 1
     cfe:	56 df       	rcall	.-340    	; 0xbac <INPUT_read_brakePedal>
     d00:	18 2f       	mov	r17, r24
    // Convert Value
    *val = INPUT_scaleInput(
     d02:	40 91 0c 02 	lds	r20, 0x020C	; 0x80020c <INPUT_PEDAL_BRAKE_CH1_LOW>
     d06:	50 91 0d 02 	lds	r21, 0x020D	; 0x80020d <INPUT_PEDAL_BRAKE_CH1_LOW+0x1>
     d0a:	60 91 0e 02 	lds	r22, 0x020E	; 0x80020e <INPUT_PEDAL_BRAKE_CH1_HIGH>
     d0e:	70 91 0f 02 	lds	r23, 0x020F	; 0x80020f <INPUT_PEDAL_BRAKE_CH1_HIGH+0x1>
     d12:	ce 01       	movw	r24, r28
     d14:	01 96       	adiw	r24, 0x01	; 1
     d16:	54 de       	rcall	.-856    	; 0x9c0 <INPUT_scaleInput>
     d18:	f7 01       	movw	r30, r14
     d1a:	80 83       	st	Z, r24
        &rawValue,
        INPUT_PEDAL_BRAKE_CH1_HIGH,
        INPUT_PEDAL_BRAKE_CH1_LOW
    );
    // Error States
    switch (state) {
     d1c:	12 30       	cpi	r17, 0x02	; 2
     d1e:	51 f0       	breq	.+20     	; 0xd34 <INPUT_get_brakePedal+0x50>
     d20:	13 30       	cpi	r17, 0x03	; 3
     d22:	71 f0       	breq	.+28     	; 0xd40 <INPUT_get_brakePedal+0x5c>
     d24:	11 30       	cpi	r17, 0x01	; 1
     d26:	89 f4       	brne	.+34     	; 0xd4a <INPUT_get_brakePedal+0x66>
        case 1: // Inputs were too low
            throw_error_code(ERROR_LEVEL_WARN, ERROR_BRAKES_POSITION_LOW);
     d28:	69 e0       	ldi	r22, 0x09	; 9
     d2a:	70 e0       	ldi	r23, 0x00	; 0
     d2c:	82 e0       	ldi	r24, 0x02	; 2
     d2e:	90 e0       	ldi	r25, 0x00	; 0
     d30:	de dd       	rcall	.-1092   	; 0x8ee <throw_error_code>
            break;
     d32:	0b c0       	rjmp	.+22     	; 0xd4a <INPUT_get_brakePedal+0x66>
        case 2: // Inputs were too high
            throw_error_code(ERROR_LEVEL_WARN, ERROR_BRAKES_POSITION_HIGH);
     d34:	6a e0       	ldi	r22, 0x0A	; 10
     d36:	70 e0       	ldi	r23, 0x00	; 0
     d38:	82 e0       	ldi	r24, 0x02	; 2
     d3a:	90 e0       	ldi	r25, 0x00	; 0
     d3c:	d8 dd       	rcall	.-1104   	; 0x8ee <throw_error_code>
            break;
     d3e:	05 c0       	rjmp	.+10     	; 0xd4a <INPUT_get_brakePedal+0x66>
        case 3: // Delta was found to be in failure
            throw_error_code(ERROR_LEVEL_WARN, ERROR_BRAKES_POSITION);
     d40:	6b e0       	ldi	r22, 0x0B	; 11
     d42:	70 e0       	ldi	r23, 0x00	; 0
     d44:	82 e0       	ldi	r24, 0x02	; 2
     d46:	90 e0       	ldi	r25, 0x00	; 0
     d48:	d2 dd       	rcall	.-1116   	; 0x8ee <throw_error_code>
        default:
            // Do nothing
            break;
    }
    return state; // Pass up state of read for process and logic use
}
     d4a:	81 2f       	mov	r24, r17
     d4c:	0f 90       	pop	r0
     d4e:	0f 90       	pop	r0
     d50:	df 91       	pop	r29
     d52:	cf 91       	pop	r28
     d54:	1f 91       	pop	r17
     d56:	ff 90       	pop	r15
     d58:	ef 90       	pop	r14
     d5a:	08 95       	ret

00000d5c <led_toggle>:
 * 
 * Reference: ATmega Datasheet Chapter 13 (I/O-Ports)
 **/
void led_toggle(void)
{
    PORTK ^= 0b00100000;
     d5c:	e8 e0       	ldi	r30, 0x08	; 8
     d5e:	f1 e0       	ldi	r31, 0x01	; 1
     d60:	90 81       	ld	r25, Z
     d62:	80 e2       	ldi	r24, 0x20	; 32
     d64:	89 27       	eor	r24, r25
     d66:	80 83       	st	Z, r24
     d68:	08 95       	ret

00000d6a <UART_sendPacket>:
    testPacketArray[3] = INPUT_steeringAngle;       // Steering Angle - 1   -> RADIAN(x -> -0.99 < 0 < 0.99) * 100 + 100
           
    UART_sendPacket(testPacketArray, 4);
}

void UART_sendPacket(uint8_t outgoingString[], uint8_t length) {
     d6a:	ff 92       	push	r15
     d6c:	0f 93       	push	r16
     d6e:	1f 93       	push	r17
     d70:	cf 93       	push	r28
     d72:	df 93       	push	r29
     d74:	8c 01       	movw	r16, r24
     d76:	f6 2e       	mov	r15, r22
    //uint8_t *ptr = outgoingString;
	
	//int testADC = a2d_10bitCh(5);
	//char  testString[5];
	//itoa(testADC, testString, 10);
	uart_putc('D');
     d78:	84 e4       	ldi	r24, 0x44	; 68
     d7a:	27 d5       	rcall	.+2638   	; 0x17ca <uart_putc>
	int i = 0;
    for(i = 0; i < length; i++) {
     d7c:	ff 20       	and	r15, r15
     d7e:	41 f0       	breq	.+16     	; 0xd90 <UART_sendPacket+0x26>
     d80:	e8 01       	movw	r28, r16
     d82:	0f 0d       	add	r16, r15
     d84:	11 1d       	adc	r17, r1
        uart_putc(outgoingString[i]);
     d86:	89 91       	ld	r24, Y+
     d88:	20 d5       	rcall	.+2624   	; 0x17ca <uart_putc>
	//int testADC = a2d_10bitCh(5);
	//char  testString[5];
	//itoa(testADC, testString, 10);
	uart_putc('D');
	int i = 0;
    for(i = 0; i < length; i++) {
     d8a:	c0 17       	cp	r28, r16
     d8c:	d1 07       	cpc	r29, r17
        uart_putc(outgoingString[i]);
    }
	uart_putc('\r');
     d8e:	d9 f7       	brne	.-10     	; 0xd86 <UART_sendPacket+0x1c>
     d90:	8d e0       	ldi	r24, 0x0D	; 13
	uart_putc('\n');
     d92:	1b d5       	rcall	.+2614   	; 0x17ca <uart_putc>
     d94:	8a e0       	ldi	r24, 0x0A	; 10
     d96:	19 d5       	rcall	.+2610   	; 0x17ca <uart_putc>
     d98:	df 91       	pop	r29
     d9a:	cf 91       	pop	r28
     d9c:	1f 91       	pop	r17
     d9e:	0f 91       	pop	r16
     da0:	ff 90       	pop	r15
     da2:	08 95       	ret

00000da4 <UART_formTestPacket>:
// 	}
	
// 	for (int i = 0; i < 32; i++) uart1_putc(outgoingString[i]);
// }

void UART_formTestPacket(void) {
     da4:	cf 93       	push	r28
     da6:	df 93       	push	r29
     da8:	00 d0       	rcall	.+0      	; 0xdaa <UART_formTestPacket+0x6>
     daa:	00 d0       	rcall	.+0      	; 0xdac <UART_formTestPacket+0x8>
     dac:	cd b7       	in	r28, 0x3d	; 61
     dae:	de b7       	in	r29, 0x3e	; 62
	
	static uint8_t fakeThrottle = 0;
	
	if(fakeThrottle++ > 100)fakeThrottle = 0;
     db0:	80 91 53 09 	lds	r24, 0x0953	; 0x800953 <fakeThrottle.2439>
     db4:	85 36       	cpi	r24, 0x65	; 101
     db6:	20 f4       	brcc	.+8      	; 0xdc0 <UART_formTestPacket+0x1c>
     db8:	8f 5f       	subi	r24, 0xFF	; 255
     dba:	80 93 53 09 	sts	0x0953, r24	; 0x800953 <fakeThrottle.2439>
     dbe:	02 c0       	rjmp	.+4      	; 0xdc4 <UART_formTestPacket+0x20>
     dc0:	10 92 53 09 	sts	0x0953, r1	; 0x800953 <fakeThrottle.2439>
    uint8_t testPacketArray[4];
    testPacketArray[0] = (ignitionState) | (armedState << 1) | (shutdownState << 2); // Button states - 1
     dc4:	80 91 9b 09 	lds	r24, 0x099B	; 0x80099b <armedState>
     dc8:	98 2f       	mov	r25, r24
     dca:	99 0f       	add	r25, r25
     dcc:	80 91 9a 09 	lds	r24, 0x099A	; 0x80099a <shutdownState>
     dd0:	88 0f       	add	r24, r24
     dd2:	88 0f       	add	r24, r24
     dd4:	89 2b       	or	r24, r25
     dd6:	90 91 9c 09 	lds	r25, 0x099C	; 0x80099c <ignitionState>
     dda:	89 2b       	or	r24, r25
     ddc:	89 83       	std	Y+1, r24	; 0x01
    testPacketArray[1] = INPUT_accelerationPedal;   // Throttle Pedal Percentage - 1
     dde:	80 91 4f 09 	lds	r24, 0x094F	; 0x80094f <INPUT_accelerationPedal>
     de2:	8a 83       	std	Y+2, r24	; 0x02
    testPacketArray[2] = INPUT_brakePedal;          // Brake Pedal Percentage - 1
     de4:	80 91 4e 09 	lds	r24, 0x094E	; 0x80094e <INPUT_brakePedal>
     de8:	8b 83       	std	Y+3, r24	; 0x03
    testPacketArray[3] = INPUT_steeringAngle;       // Steering Angle - 1   -> RADIAN(x -> -0.99 < 0 < 0.99) * 100 + 100
     dea:	80 91 50 09 	lds	r24, 0x0950	; 0x800950 <INPUT_steeringAngle>
     dee:	8c 83       	std	Y+4, r24	; 0x04
           
    UART_sendPacket(testPacketArray, 4);
     df0:	64 e0       	ldi	r22, 0x04	; 4
     df2:	ce 01       	movw	r24, r28
     df4:	01 96       	adiw	r24, 0x01	; 1
     df6:	b9 df       	rcall	.-142    	; 0xd6a <UART_sendPacket>
}
     df8:	0f 90       	pop	r0
     dfa:	0f 90       	pop	r0
     dfc:	0f 90       	pop	r0
     dfe:	0f 90       	pop	r0
     e00:	df 91       	pop	r29
     e02:	cf 91       	pop	r28
     e04:	08 95       	ret

00000e06 <uart_parse_input>:
 * Returns: none
 * 
 * 
 **/
void uart_parse_input(unsigned char* s)
{
     e06:	cf 93       	push	r28
     e08:	df 93       	push	r29
     e0a:	ec 01       	movw	r28, r24
 * 
 * 
 **/
void uart_parse_poke(unsigned char* s)
{
	PDMarray[0] = s[0];
     e0c:	88 81       	ld	r24, Y
     e0e:	80 93 8a 09 	sts	0x098A, r24	; 0x80098a <PDMarray>
 **/
void uart_parse_input(unsigned char* s)
{
	uart_parse_poke(s);
	//uart1_putc('D');				// reply with the header byte (preserved - 33 bytes should follow)
	UART_formTestPacket();
     e12:	c8 df       	rcall	.-112    	; 0xda4 <UART_formTestPacket>

	s[0] = '\0';					// clear the header byte
     e14:	18 82       	st	Y, r1
}
     e16:	df 91       	pop	r29
     e18:	cf 91       	pop	r28
     e1a:	08 95       	ret

00000e1c <uart_process_byte>:
	
	static unsigned char count = 0;
	static unsigned char incomingString[48];							//made bigger to accommodate PT packets
	static unsigned char stringActive = 0;
	
	if(data == 'D')
     e1c:	84 34       	cpi	r24, 0x44	; 68
     e1e:	21 f4       	brne	.+8      	; 0xe28 <uart_process_byte+0xc>
	{
		stringActive = 1;
     e20:	81 e0       	ldi	r24, 0x01	; 1
     e22:	80 93 85 09 	sts	0x0985, r24	; 0x800985 <stringActive.2429>
     e26:	0d c0       	rjmp	.+26     	; 0xe42 <uart_process_byte+0x26>
	}
	
	else if(stringActive == 1)
     e28:	90 91 85 09 	lds	r25, 0x0985	; 0x800985 <stringActive.2429>
     e2c:	91 30       	cpi	r25, 0x01	; 1
     e2e:	49 f4       	brne	.+18     	; 0xe42 <uart_process_byte+0x26>
	{
		incomingString[count++] = data;
     e30:	e0 91 84 09 	lds	r30, 0x0984	; 0x800984 <count.2427>
     e34:	9e 0f       	add	r25, r30
     e36:	90 93 84 09 	sts	0x0984, r25	; 0x800984 <count.2427>
     e3a:	f0 e0       	ldi	r31, 0x00	; 0
     e3c:	ec 5a       	subi	r30, 0xAC	; 172
     e3e:	f6 4f       	sbci	r31, 0xF6	; 246
     e40:	80 83       	st	Z, r24
	}
	
	if(count > 8)
     e42:	e0 91 84 09 	lds	r30, 0x0984	; 0x800984 <count.2427>
     e46:	e9 30       	cpi	r30, 0x09	; 9
     e48:	58 f0       	brcs	.+22     	; 0xe60 <uart_process_byte+0x44>
	{
		incomingString[count - 1] = '\0';
     e4a:	f0 e0       	ldi	r31, 0x00	; 0
     e4c:	ed 5a       	subi	r30, 0xAD	; 173
     e4e:	f6 4f       	sbci	r31, 0xF6	; 246
     e50:	10 82       	st	Z, r1
		count = 0;
     e52:	10 92 84 09 	sts	0x0984, r1	; 0x800984 <count.2427>
		stringActive = 0;
     e56:	10 92 85 09 	sts	0x0985, r1	; 0x800985 <stringActive.2429>
		uart_parse_input(incomingString);
     e5a:	84 e5       	ldi	r24, 0x54	; 84
     e5c:	99 e0       	ldi	r25, 0x09	; 9
     e5e:	d3 cf       	rjmp	.-90     	; 0xe06 <uart_parse_input>
     e60:	08 95       	ret

00000e62 <main>:
volatile uint8_t out = 0;

int main(void) {    

    // Set Up
    firmware_init();
     e62:	7e dd       	rcall	.-1284   	; 0x960 <firmware_init>
    timer_init();
     e64:	91 dd       	rcall	.-1246   	; 0x988 <timer_init>
     e66:	10 92 9a 09 	sts	0x099A, r1	; 0x80099a <shutdownState>

    // Grab the state of the shutdown circuity
    shutdownState = 0;
     e6a:	2f ef       	ldi	r18, 0xFF	; 255
	#else
		//round up by default
		__ticks_dc = (uint32_t)(ceil(fabs(__tmp)));
	#endif

	__builtin_avr_delay_cycles(__ticks_dc);
     e6c:	89 e6       	ldi	r24, 0x69	; 105
     e6e:	98 e1       	ldi	r25, 0x18	; 24
     e70:	21 50       	subi	r18, 0x01	; 1
     e72:	80 40       	sbci	r24, 0x00	; 0
     e74:	90 40       	sbci	r25, 0x00	; 0
     e76:	e1 f7       	brne	.-8      	; 0xe70 <main+0xe>
     e78:	00 c0       	rjmp	.+0      	; 0xe7a <main+0x18>
     e7a:	00 00       	nop
	_delay_ms(500);
    // Enable Interupts
    sei();		
     e7c:	78 94       	sei
    // Main Poll
    // ------------------------------------------------------------------------
    while(1) {
		
		if(isCharAvailable() == 1)uart_process_byte(receiveChar());
     e7e:	f8 d4       	rcall	.+2544   	; 0x1870 <isCharAvailable>
     e80:	81 30       	cpi	r24, 0x01	; 1
     e82:	11 f4       	brne	.+4      	; 0xe88 <main+0x26>
     e84:	fb d4       	rcall	.+2550   	; 0x187c <receiveChar>
     e86:	ca df       	rcall	.-108    	; 0xe1c <uart_process_byte>
		uart1_puts("Hello World!\n");
     e88:	8d ee       	ldi	r24, 0xED	; 237
     e8a:	98 e0       	ldi	r25, 0x08	; 8
     e8c:	e3 d4       	rcall	.+2502   	; 0x1854 <uart1_puts>
     e8e:	f7 cf       	rjmp	.-18     	; 0xe7e <main+0x1c>

00000e90 <oneKHzTimer>:
	}
     e90:	0f 93       	push	r16

/**
 * @brief Core system's timer, 1ms, core of the pseudo RTOS system
 */
void oneKHzTimer(void)
{
     e92:	1f 93       	push	r17
     e94:	cf 93       	push	r28
     e96:	df 93       	push	r29
     e98:	1f 92       	push	r1
     e9a:	cd b7       	in	r28, 0x3d	; 61
     e9c:	de b7       	in	r29, 0x3e	; 62
    // static uint8_t InputTempCount = 5;					// Number of iterations for the temp heartbeat trigger

    // static uint8_t CANInputSendTime = 0;					// Number of iterations for the input send trigger

	// flash the LED to show the system is running
	if(test_counter++ > 100)
     e9e:	80 91 88 09 	lds	r24, 0x0988	; 0x800988 <test_counter.2495>
     ea2:	90 91 89 09 	lds	r25, 0x0989	; 0x800989 <test_counter.2495+0x1>
     ea6:	85 36       	cpi	r24, 0x65	; 101
     ea8:	91 05       	cpc	r25, r1
     eaa:	34 f4       	brge	.+12     	; 0xeb8 <oneKHzTimer+0x28>
     eac:	01 96       	adiw	r24, 0x01	; 1
     eae:	90 93 89 09 	sts	0x0989, r25	; 0x800989 <test_counter.2495+0x1>
     eb2:	80 93 88 09 	sts	0x0988, r24	; 0x800988 <test_counter.2495>
     eb6:	04 c0       	rjmp	.+8      	; 0xec0 <oneKHzTimer+0x30>
	{
		//PORTK ^= 32;
		test_counter = 0;
     eb8:	10 92 89 09 	sts	0x0989, r1	; 0x800989 <test_counter.2495+0x1>
     ebc:	10 92 88 09 	sts	0x0988, r1	; 0x800988 <test_counter.2495>
	
	
    // Check the ignition button state
    // 1s debounce, IE hold for 50ms and if held, change state
    // ------------------------------------------------------------------------
	if(!(PINJ & (1<<PJ6))) // Checking Pin J6 (69)
     ec0:	80 91 03 01 	lds	r24, 0x0103	; 0x800103 <__TEXT_REGION_LENGTH__+0x7e0103>
     ec4:	86 fd       	sbrc	r24, 6
     ec6:	1e c0       	rjmp	.+60     	; 0xf04 <oneKHzTimer+0x74>
    {
        ignitionState = 1; // Tracks that the ignition button is on
     ec8:	81 e0       	ldi	r24, 0x01	; 1
     eca:	80 93 9c 09 	sts	0x099C, r24	; 0x80099c <ignitionState>
        if(ignitionStateDebounceCount++ > 2000) // If 1s has been counted
     ece:	80 91 9e 09 	lds	r24, 0x099E	; 0x80099e <ignitionStateDebounceCount>
     ed2:	90 91 9f 09 	lds	r25, 0x099F	; 0x80099f <ignitionStateDebounceCount+0x1>
     ed6:	9c 01       	movw	r18, r24
     ed8:	2f 5f       	subi	r18, 0xFF	; 255
     eda:	3f 4f       	sbci	r19, 0xFF	; 255
     edc:	30 93 9f 09 	sts	0x099F, r19	; 0x80099f <ignitionStateDebounceCount+0x1>
     ee0:	20 93 9e 09 	sts	0x099E, r18	; 0x80099e <ignitionStateDebounceCount>
     ee4:	81 3d       	cpi	r24, 0xD1	; 209
     ee6:	97 40       	sbci	r25, 0x07	; 7
     ee8:	a8 f0       	brcs	.+42     	; 0xf14 <oneKHzTimer+0x84>
		{
            //If this is the first time though from a previous press
            if(ignitionStateLock == 0) {
     eea:	80 91 9d 09 	lds	r24, 0x099D	; 0x80099d <ignitionStateLock>
     eee:	81 11       	cpse	r24, r1
     ef0:	11 c0       	rjmp	.+34     	; 0xf14 <oneKHzTimer+0x84>
                ignitionStateLock = 1;		// Disabled first run though after press
     ef2:	81 e0       	ldi	r24, 0x01	; 1
     ef4:	80 93 9d 09 	sts	0x099D, r24	; 0x80099d <ignitionStateLock>
                armedState ^= 1;
     ef8:	90 91 9b 09 	lds	r25, 0x099B	; 0x80099b <armedState>
     efc:	89 27       	eor	r24, r25
     efe:	80 93 9b 09 	sts	0x099B, r24	; 0x80099b <armedState>
     f02:	08 c0       	rjmp	.+16     	; 0xf14 <oneKHzTimer+0x84>
            }
        }
    }
    else {
        ignitionState = 0; // Tracks that the ignition button is off
     f04:	10 92 9c 09 	sts	0x099C, r1	; 0x80099c <ignitionState>
        ignitionStateLock = 0; // Re-enables the first run though after the timer has been reached
     f08:	10 92 9d 09 	sts	0x099D, r1	; 0x80099d <ignitionStateLock>
        ignitionStateDebounceCount = 0; // Resets the counter for time the button is pressed
     f0c:	10 92 9f 09 	sts	0x099F, r1	; 0x80099f <ignitionStateDebounceCount+0x1>
     f10:	10 92 9e 09 	sts	0x099E, r1	; 0x80099e <ignitionStateDebounceCount>
     //Send CAN heartbeats -> Inverters: 100Hz, Data: 100Hz, Power: 20Hz
     //100Hz = 1 / 100 = 0.01s = 10ms, 20Hz = 1 / 20 = 0.05s = 50ms
     //------------------------------------------------------------------------
    
	
	 inverterArray[0] = INPUT_accelerationPedal;//CAN_HEARTBEAT_TIME_INVERTERS
     f14:	80 91 4f 09 	lds	r24, 0x094F	; 0x80094f <INPUT_accelerationPedal>
     f18:	80 93 92 09 	sts	0x0992, r24	; 0x800992 <inverterArray>
	 if(CANheartbeatCountInverters >= CAN_HEARTBEAT_TIME_INVERTERS)
     f1c:	80 91 86 09 	lds	r24, 0x0986	; 0x800986 <CANheartbeatCountInverters.2496>
     f20:	90 91 87 09 	lds	r25, 0x0987	; 0x800987 <CANheartbeatCountInverters.2496+0x1>
     f24:	44 97       	sbiw	r24, 0x14	; 20
     f26:	78 f0       	brcs	.+30     	; 0xf46 <oneKHzTimer+0xb6>
	 {
		 // Reset inverter heartbeat counter
		 CANheartbeatCountInverters = 0;
     f28:	10 92 87 09 	sts	0x0987, r1	; 0x800987 <CANheartbeatCountInverters.2496+0x1>
     f2c:	10 92 86 09 	sts	0x0986, r1	; 0x800986 <CANheartbeatCountInverters.2496>
		 // To wait for Inv message
		 RecievedMsgInv = 0;
     f30:	10 92 27 02 	sts	0x0227, r1	; 0x800227 <RecievedMsgInv>
		 // Send inverter system heartbeat 0b0100100000000000000000000011110
		 CAN_send(TRACTIVE_CAN, 8, inverterArray, 0x4666666);
     f34:	06 e6       	ldi	r16, 0x66	; 102
     f36:	16 e6       	ldi	r17, 0x66	; 102
     f38:	26 e6       	ldi	r18, 0x66	; 102
     f3a:	34 e0       	ldi	r19, 0x04	; 4
     f3c:	42 e9       	ldi	r20, 0x92	; 146
     f3e:	59 e0       	ldi	r21, 0x09	; 9
     f40:	68 e0       	ldi	r22, 0x08	; 8
     f42:	81 e0       	ldi	r24, 0x01	; 1
     f44:	ce d9       	rcall	.-3172   	; 0x2e2 <CAN_send>
	 }else if(CANheartbeatCountInverters > CAN_HEARTBEAT_TIME_INVERTERS * 2){
		// Inverter dead, shutdown
	 }
	 
	 if(CANheartbeatCountWheel > CAN_HEARTBEAT_TIME_WHEEL)
     f46:	80 91 1d 02 	lds	r24, 0x021D	; 0x80021d <CANheartbeatCountWheel.2497>
     f4a:	90 91 1e 02 	lds	r25, 0x021E	; 0x80021e <CANheartbeatCountWheel.2497+0x1>
     f4e:	c3 97       	sbiw	r24, 0x33	; 51
     f50:	68 f0       	brcs	.+26     	; 0xf6c <oneKHzTimer+0xdc>
	 {
		 // Reset data heartbeat counter
		 CANheartbeatCountWheel = 0;
     f52:	10 92 1e 02 	sts	0x021E, r1	; 0x80021e <CANheartbeatCountWheel.2497+0x1>
     f56:	10 92 1d 02 	sts	0x021D, r1	; 0x80021d <CANheartbeatCountWheel.2497>
		 // Send data system heartbeat
		 CAN_send(DATA_CAN, 8, WheelArray, HEARTBEAT_WHEEL_ID | 1);
     f5a:	01 e0       	ldi	r16, 0x01	; 1
     f5c:	10 e0       	ldi	r17, 0x00	; 0
     f5e:	20 e4       	ldi	r18, 0x40	; 64
     f60:	38 e0       	ldi	r19, 0x08	; 8
     f62:	4f e1       	ldi	r20, 0x1F	; 31
     f64:	52 e0       	ldi	r21, 0x02	; 2
     f66:	68 e0       	ldi	r22, 0x08	; 8
     f68:	84 e0       	ldi	r24, 0x04	; 4
     f6a:	bb d9       	rcall	.-3210   	; 0x2e2 <CAN_send>
		 
	 }
	 
	 if(CANheartbeatCountPDM > CAN_HEARTBEAT_TIME_PDM)
     f6c:	80 91 1b 02 	lds	r24, 0x021B	; 0x80021b <CANheartbeatCountPDM.2498>
     f70:	90 91 1c 02 	lds	r25, 0x021C	; 0x80021c <CANheartbeatCountPDM.2498+0x1>
     f74:	c3 97       	sbiw	r24, 0x33	; 51
     f76:	98 f0       	brcs	.+38     	; 0xf9e <oneKHzTimer+0x10e>
	 {
		 // Reset power heartbeat counter
		 CANheartbeatCountPDM = 0;
     f78:	10 92 1c 02 	sts	0x021C, r1	; 0x80021c <CANheartbeatCountPDM.2498+0x1>
     f7c:	10 92 1b 02 	sts	0x021B, r1	; 0x80021b <CANheartbeatCountPDM.2498>
		 // Send power system heartbeat
		 //if(armedState == 1)PDMarray[0] |= 255; //192
		 PDMarray[0] |= 255; // testing CAN
     f80:	ea e8       	ldi	r30, 0x8A	; 138
     f82:	f9 e0       	ldi	r31, 0x09	; 9
     f84:	8f ef       	ldi	r24, 0xFF	; 255
     f86:	80 83       	st	Z, r24
		 PDMarray[1] |= 255; // testing CAN
     f88:	81 83       	std	Z+1, r24	; 0x01
		 PDMarray[2] |= 255; // testing CAN
     f8a:	82 83       	std	Z+2, r24	; 0x02
		 PDMarray[3] |= 255; // testing CAN
     f8c:	83 83       	std	Z+3, r24	; 0x03
		 PDMarray[4] |= 0; // testing CAN
		 PDMarray[5] |= 0; // testing CAN
		 PDMarray[6] |= 0; // testing CAN
		 PDMarray[7] |= 0; // testing CAN
		 //else PDMarray[0] &= ~255;
		 CAN_send(POWER_CAN, 8, PDMarray, HEARTBEAT_PDM_ID | 1);
     f8e:	01 e0       	ldi	r16, 0x01	; 1
     f90:	10 e0       	ldi	r17, 0x00	; 0
     f92:	20 e0       	ldi	r18, 0x00	; 0
     f94:	39 e0       	ldi	r19, 0x09	; 9
     f96:	af 01       	movw	r20, r30
     f98:	68 e0       	ldi	r22, 0x08	; 8
     f9a:	82 e0       	ldi	r24, 0x02	; 2
     f9c:	a2 d9       	rcall	.-3260   	; 0x2e2 <CAN_send>
	 }
	 
	 if(CANheartbeatCountShutdown > CAN_HEARTBEAT_TIME_SHUTDOWN)
     f9e:	80 91 19 02 	lds	r24, 0x0219	; 0x800219 <CANheartbeatCountShutdown.2499>
     fa2:	90 91 1a 02 	lds	r25, 0x021A	; 0x80021a <CANheartbeatCountShutdown.2499+0x1>
     fa6:	85 36       	cpi	r24, 0x65	; 101
     fa8:	91 05       	cpc	r25, r1
     faa:	20 f0       	brcs	.+8      	; 0xfb4 <oneKHzTimer+0x124>
	 {
		 // Reset power heartbeat counter
		 CANheartbeatCountShutdown = 0;
     fac:	10 92 1a 02 	sts	0x021A, r1	; 0x80021a <CANheartbeatCountShutdown.2499+0x1>
     fb0:	10 92 19 02 	sts	0x0219, r1	; 0x800219 <CANheartbeatCountShutdown.2499>
		 // Send shutdown heartbeat (dont care what for now)
		 //CAN_send(POWER_CAN, 8, PDMarray, HEARTBEAT_SHUTDOWN_ID | 1);
	 }
	 
	 if(CANheartbeatCountAMU > CAN_HEARTBEAT_TIME_AMU)
     fb4:	80 91 17 02 	lds	r24, 0x0217	; 0x800217 <CANheartbeatCountAMU.2500>
     fb8:	90 91 18 02 	lds	r25, 0x0218	; 0x800218 <CANheartbeatCountAMU.2500+0x1>
     fbc:	c3 97       	sbiw	r24, 0x33	; 51
     fbe:	20 f0       	brcs	.+8      	; 0xfc8 <oneKHzTimer+0x138>
	 {
		 // Reset power heartbeat counter
		 CANheartbeatCountAMU = 0;
     fc0:	10 92 18 02 	sts	0x0218, r1	; 0x800218 <CANheartbeatCountAMU.2500+0x1>
     fc4:	10 92 17 02 	sts	0x0217, r1	; 0x800217 <CANheartbeatCountAMU.2500>
		 // Send shutdown heartbeat (dont care what for now)
		 //CAN_send(POWER_CAN, 8, PDMarray, HEARTBEAT_AMU_ID | 1);
	 }
	 
	 // the adding commented to test a counting system in the inverters if statement
	 CANheartbeatCountInverters++;
     fc8:	80 91 86 09 	lds	r24, 0x0986	; 0x800986 <CANheartbeatCountInverters.2496>
     fcc:	90 91 87 09 	lds	r25, 0x0987	; 0x800987 <CANheartbeatCountInverters.2496+0x1>
     fd0:	01 96       	adiw	r24, 0x01	; 1
     fd2:	90 93 87 09 	sts	0x0987, r25	; 0x800987 <CANheartbeatCountInverters.2496+0x1>
     fd6:	80 93 86 09 	sts	0x0986, r24	; 0x800986 <CANheartbeatCountInverters.2496>
	 CANheartbeatCountWheel++;
     fda:	80 91 1d 02 	lds	r24, 0x021D	; 0x80021d <CANheartbeatCountWheel.2497>
     fde:	90 91 1e 02 	lds	r25, 0x021E	; 0x80021e <CANheartbeatCountWheel.2497+0x1>
     fe2:	01 96       	adiw	r24, 0x01	; 1
     fe4:	90 93 1e 02 	sts	0x021E, r25	; 0x80021e <CANheartbeatCountWheel.2497+0x1>
     fe8:	80 93 1d 02 	sts	0x021D, r24	; 0x80021d <CANheartbeatCountWheel.2497>
	 CANheartbeatCountPDM++;
     fec:	80 91 1b 02 	lds	r24, 0x021B	; 0x80021b <CANheartbeatCountPDM.2498>
     ff0:	90 91 1c 02 	lds	r25, 0x021C	; 0x80021c <CANheartbeatCountPDM.2498+0x1>
     ff4:	01 96       	adiw	r24, 0x01	; 1
     ff6:	90 93 1c 02 	sts	0x021C, r25	; 0x80021c <CANheartbeatCountPDM.2498+0x1>
     ffa:	80 93 1b 02 	sts	0x021B, r24	; 0x80021b <CANheartbeatCountPDM.2498>
	 CANheartbeatCountShutdown++;
     ffe:	80 91 19 02 	lds	r24, 0x0219	; 0x800219 <CANheartbeatCountShutdown.2499>
    1002:	90 91 1a 02 	lds	r25, 0x021A	; 0x80021a <CANheartbeatCountShutdown.2499+0x1>
    1006:	01 96       	adiw	r24, 0x01	; 1
    1008:	90 93 1a 02 	sts	0x021A, r25	; 0x80021a <CANheartbeatCountShutdown.2499+0x1>
    100c:	80 93 19 02 	sts	0x0219, r24	; 0x800219 <CANheartbeatCountShutdown.2499>
	 CANheartbeatCountAMU++;
    1010:	80 91 17 02 	lds	r24, 0x0217	; 0x800217 <CANheartbeatCountAMU.2500>
    1014:	90 91 18 02 	lds	r25, 0x0218	; 0x800218 <CANheartbeatCountAMU.2500+0x1>
    1018:	01 96       	adiw	r24, 0x01	; 1
    101a:	90 93 18 02 	sts	0x0218, r25	; 0x800218 <CANheartbeatCountAMU.2500+0x1>
    101e:	80 93 17 02 	sts	0x0217, r24	; 0x800217 <CANheartbeatCountAMU.2500>
    // CanHeartbeatErrorPower++;


    // Send CAN input
    uint8_t tmpInputVal;
    if(InputPedalThrottleCount > INPUT_TIME_PEDAL_THROTTLE)
    1022:	80 91 16 02 	lds	r24, 0x0216	; 0x800216 <InputPedalThrottleCount.2501>
    1026:	8b 30       	cpi	r24, 0x0B	; 11
    {
		//INPUT_accelerationPedal = a2d_10bitCh(5);

        if(INPUT_get_accelPedal(&tmpInputVal) == 0) {
    1028:	50 f0       	brcs	.+20     	; 0x103e <oneKHzTimer+0x1ae>
    102a:	ce 01       	movw	r24, r28
    102c:	01 96       	adiw	r24, 0x01	; 1
    102e:	82 dd       	rcall	.-1276   	; 0xb34 <INPUT_get_accelPedal>
    1030:	81 11       	cpse	r24, r1
    1032:	03 c0       	rjmp	.+6      	; 0x103a <oneKHzTimer+0x1aa>
             INPUT_accelerationPedal = tmpInputVal;
    1034:	89 81       	ldd	r24, Y+1	; 0x01
    1036:	80 93 4f 09 	sts	0x094F, r24	; 0x80094f <INPUT_accelerationPedal>
        }
        InputPedalThrottleCount = 0;
    103a:	10 92 16 02 	sts	0x0216, r1	; 0x800216 <InputPedalThrottleCount.2501>
    }

    if(InputPedalBrakeCount > INPUT_TIME_PEDAL_BRAKE)
    103e:	80 91 15 02 	lds	r24, 0x0215	; 0x800215 <InputPedalBrakeCount.2502>
    1042:	8b 30       	cpi	r24, 0x0B	; 11
    {
        //INPUT_brakePedal = (uint8_t)(a2d_10bitCh(8)/4);
        if(INPUT_get_brakePedal(&tmpInputVal) == 0) {
    1044:	50 f0       	brcs	.+20     	; 0x105a <oneKHzTimer+0x1ca>
    1046:	ce 01       	movw	r24, r28
    1048:	01 96       	adiw	r24, 0x01	; 1
    104a:	4c de       	rcall	.-872    	; 0xce4 <INPUT_get_brakePedal>
    104c:	81 11       	cpse	r24, r1
    104e:	03 c0       	rjmp	.+6      	; 0x1056 <oneKHzTimer+0x1c6>
             INPUT_brakePedal = tmpInputVal;
    1050:	89 81       	ldd	r24, Y+1	; 0x01
    1052:	80 93 4e 09 	sts	0x094E, r24	; 0x80094e <INPUT_brakePedal>
		}
		
        InputPedalBrakeCount = 0;
    1056:	10 92 15 02 	sts	0x0215, r1	; 0x800215 <InputPedalBrakeCount.2502>
    }
	
	if(InputSteeringCount > INPUT_TIME_STEERING)
    105a:	80 91 14 02 	lds	r24, 0x0214	; 0x800214 <InputSteeringCount.2503>
    105e:	8b 30       	cpi	r24, 0x0B	; 11
	{
		INPUT_steeringAngle = (uint8_t)(a2d_8bitCh(INPUT_STEERING_ANGLE_CH));
    1060:	30 f0       	brcs	.+12     	; 0x106e <oneKHzTimer+0x1de>
    1062:	84 e0       	ldi	r24, 0x04	; 4
    1064:	38 d9       	rcall	.-3472   	; 0x2d6 <a2d_8bitCh>
    1066:	80 93 50 09 	sts	0x0950, r24	; 0x800950 <INPUT_steeringAngle>
		//if(INPUT_get_steeringWheel(&tmpInputVal) == 0) {
			//INPUT_steeringAngle = tmpInputVal;
		//}
		
		InputSteeringCount = 0;
    106a:	10 92 14 02 	sts	0x0214, r1	; 0x800214 <InputSteeringCount.2503>
	}
	
    InputPedalThrottleCount++;
    106e:	80 91 16 02 	lds	r24, 0x0216	; 0x800216 <InputPedalThrottleCount.2501>
    1072:	8f 5f       	subi	r24, 0xFF	; 255
    1074:	80 93 16 02 	sts	0x0216, r24	; 0x800216 <InputPedalThrottleCount.2501>
    InputPedalBrakeCount++;
    1078:	80 91 15 02 	lds	r24, 0x0215	; 0x800215 <InputPedalBrakeCount.2502>
    107c:	8f 5f       	subi	r24, 0xFF	; 255
    107e:	80 93 15 02 	sts	0x0215, r24	; 0x800215 <InputPedalBrakeCount.2502>
	InputSteeringCount++;
    1082:	80 91 14 02 	lds	r24, 0x0214	; 0x800214 <InputSteeringCount.2503>
    1086:	8f 5f       	subi	r24, 0xFF	; 255
    1088:	80 93 14 02 	sts	0x0214, r24	; 0x800214 <InputSteeringCount.2503>
    
	
	inverterArray[0] = INPUT_accelerationPedal;
    108c:	80 91 4f 09 	lds	r24, 0x094F	; 0x80094f <INPUT_accelerationPedal>
    1090:	80 93 92 09 	sts	0x0992, r24	; 0x800992 <inverterArray>
	WheelArray[1] = INPUT_accelerationPedal;
    1094:	80 93 20 02 	sts	0x0220, r24	; 0x800220 <WheelArray+0x1>
    // }
    // if(INPUT_get_brakePressureFront(&tmpInputVal) == 0) {
    //     INPUT_brakePressureFront = tmpInputVal;
    // }
	
}
    1098:	0f 90       	pop	r0
    109a:	df 91       	pop	r29
    109c:	cf 91       	pop	r28
    109e:	1f 91       	pop	r17
    10a0:	0f 91       	pop	r16
    10a2:	08 95       	ret

000010a4 <__vector_21>:

/**
 * @brief Called whenever the 1Khz timer triggers
 */
ISR(TIMER0_COMPA_vect)
{
    10a4:	1f 92       	push	r1
    10a6:	0f 92       	push	r0
    10a8:	0f b6       	in	r0, 0x3f	; 63
    10aa:	0f 92       	push	r0
    10ac:	11 24       	eor	r1, r1
    10ae:	0b b6       	in	r0, 0x3b	; 59
    10b0:	0f 92       	push	r0
    10b2:	2f 93       	push	r18
    10b4:	3f 93       	push	r19
    10b6:	4f 93       	push	r20
    10b8:	5f 93       	push	r21
    10ba:	6f 93       	push	r22
    10bc:	7f 93       	push	r23
    10be:	8f 93       	push	r24
    10c0:	9f 93       	push	r25
    10c2:	af 93       	push	r26
    10c4:	bf 93       	push	r27
    10c6:	ef 93       	push	r30
    10c8:	ff 93       	push	r31
    oneKHzTimer();
    10ca:	e2 de       	rcall	.-572    	; 0xe90 <oneKHzTimer>
	//uart_puts("HelloWorld!");
	//char msg[12];
	//sprintf(msg, "r: %d", out);
	//uart_puts(msg);
}
    10cc:	ff 91       	pop	r31
    10ce:	ef 91       	pop	r30
    10d0:	bf 91       	pop	r27
    10d2:	af 91       	pop	r26
    10d4:	9f 91       	pop	r25
    10d6:	8f 91       	pop	r24
    10d8:	7f 91       	pop	r23
    10da:	6f 91       	pop	r22
    10dc:	5f 91       	pop	r21
    10de:	4f 91       	pop	r20
    10e0:	3f 91       	pop	r19
    10e2:	2f 91       	pop	r18
    10e4:	0f 90       	pop	r0
    10e6:	0b be       	out	0x3b, r0	; 59
    10e8:	0f 90       	pop	r0
    10ea:	0f be       	out	0x3f, r0	; 63
    10ec:	0f 90       	pop	r0
    10ee:	1f 90       	pop	r1
    10f0:	18 95       	reti

000010f2 <__vector_17>:

ISR(TIMER1_COMPA_vect)
{
    10f2:	1f 92       	push	r1
    10f4:	0f 92       	push	r0
    10f6:	0f b6       	in	r0, 0x3f	; 63
    10f8:	0f 92       	push	r0
    10fa:	11 24       	eor	r1, r1

}
    10fc:	0f 90       	pop	r0
    10fe:	0f be       	out	0x3f, r0	; 63
    1100:	0f 90       	pop	r0
    1102:	1f 90       	pop	r1
    1104:	18 95       	reti

00001106 <__vector_2>:

/**
 * @brief Called whenever CANBUS 1 interupt is triggered
 *        * When ever there is data waiting in CAN 1
 */
ISR(INT1_vect) {
    1106:	1f 92       	push	r1
    1108:	0f 92       	push	r0
    110a:	0f b6       	in	r0, 0x3f	; 63
    110c:	0f 92       	push	r0
    110e:	11 24       	eor	r1, r1
    1110:	0b b6       	in	r0, 0x3b	; 59
    1112:	0f 92       	push	r0
    1114:	2f 93       	push	r18
    1116:	3f 93       	push	r19
    1118:	4f 93       	push	r20
    111a:	5f 93       	push	r21
    111c:	6f 93       	push	r22
    111e:	7f 93       	push	r23
    1120:	8f 93       	push	r24
    1122:	9f 93       	push	r25
    1124:	af 93       	push	r26
    1126:	bf 93       	push	r27
    1128:	ef 93       	push	r30
    112a:	ff 93       	push	r31
    112c:	cf 93       	push	r28
    112e:	df 93       	push	r29
    1130:	cd b7       	in	r28, 0x3d	; 61
    1132:	de b7       	in	r29, 0x3e	; 62
    1134:	2d 97       	sbiw	r28, 0x0d	; 13
    1136:	de bf       	out	0x3e, r29	; 62
    1138:	cd bf       	out	0x3d, r28	; 61
	// Details about the message we're attempting to pull from the CAN bus
	uint8_t data[8];
	uint32_t ID;
	uint8_t numBytes;
	led_toggle();
    113a:	10 de       	rcall	.-992    	; 0xd5c <led_toggle>
	RecievedMsgInv = 1;
    113c:	81 e0       	ldi	r24, 0x01	; 1
    113e:	80 93 27 02 	sts	0x0227, r24	; 0x800227 <RecievedMsgInv>
	// Get the data from the CAN bus and process it
	CAN_pull_packet(TRACTIVE_CAN, &numBytes, data, &ID);
    1142:	9e 01       	movw	r18, r28
    1144:	27 5f       	subi	r18, 0xF7	; 247
    1146:	3f 4f       	sbci	r19, 0xFF	; 255
    1148:	ae 01       	movw	r20, r28
    114a:	4f 5f       	subi	r20, 0xFF	; 255
    114c:	5f 4f       	sbci	r21, 0xFF	; 255
    114e:	be 01       	movw	r22, r28
    1150:	63 5f       	subi	r22, 0xF3	; 243
    1152:	7f 4f       	sbci	r23, 0xFF	; 255
    1154:	ee d8       	rcall	.-3620   	; 0x332 <CAN_pull_packet>

    // If the data packet is crap
    // throw_error_code(ERROR_LEVEL_WARN, ERROR_CANBUS_1_RESPONSE_MALFORMED);
	//out++;
}
    1156:	2d 96       	adiw	r28, 0x0d	; 13
    1158:	0f b6       	in	r0, 0x3f	; 63
    115a:	f8 94       	cli
    115c:	de bf       	out	0x3e, r29	; 62
    115e:	0f be       	out	0x3f, r0	; 63
    1160:	cd bf       	out	0x3d, r28	; 61
    1162:	df 91       	pop	r29
    1164:	cf 91       	pop	r28
    1166:	ff 91       	pop	r31
    1168:	ef 91       	pop	r30
    116a:	bf 91       	pop	r27
    116c:	af 91       	pop	r26
    116e:	9f 91       	pop	r25
    1170:	8f 91       	pop	r24
    1172:	7f 91       	pop	r23
    1174:	6f 91       	pop	r22
    1176:	5f 91       	pop	r21
    1178:	4f 91       	pop	r20
    117a:	3f 91       	pop	r19
    117c:	2f 91       	pop	r18
    117e:	0f 90       	pop	r0
    1180:	0b be       	out	0x3b, r0	; 59
    1182:	0f 90       	pop	r0
    1184:	0f be       	out	0x3f, r0	; 63
    1186:	0f 90       	pop	r0
    1188:	1f 90       	pop	r1
    118a:	18 95       	reti

0000118c <__vector_1>:

/**
 * @brief Called whenever CANBUS 2 interupt is triggered
 *        * When ever there is data waiting in CAN 2
 */
ISR(INT0_vect)	{
    118c:	1f 92       	push	r1
    118e:	0f 92       	push	r0
    1190:	0f b6       	in	r0, 0x3f	; 63
    1192:	0f 92       	push	r0
    1194:	11 24       	eor	r1, r1
    1196:	0b b6       	in	r0, 0x3b	; 59
    1198:	0f 92       	push	r0
    119a:	2f 93       	push	r18
    119c:	3f 93       	push	r19
    119e:	4f 93       	push	r20
    11a0:	5f 93       	push	r21
    11a2:	6f 93       	push	r22
    11a4:	7f 93       	push	r23
    11a6:	8f 93       	push	r24
    11a8:	9f 93       	push	r25
    11aa:	af 93       	push	r26
    11ac:	bf 93       	push	r27
    11ae:	ef 93       	push	r30
    11b0:	ff 93       	push	r31
    11b2:	cf 93       	push	r28
    11b4:	df 93       	push	r29
    11b6:	cd b7       	in	r28, 0x3d	; 61
    11b8:	de b7       	in	r29, 0x3e	; 62
    11ba:	2d 97       	sbiw	r28, 0x0d	; 13
    11bc:	de bf       	out	0x3e, r29	; 62
    11be:	cd bf       	out	0x3d, r28	; 61
	uint8_t data[8];
	uint32_t ID;
	uint8_t numBytes;
	//led_toggle();
	// Get the data from the CAN bus and process it
	CAN_pull_packet(POWER_CAN, &numBytes, data, &ID);
    11c0:	9e 01       	movw	r18, r28
    11c2:	27 5f       	subi	r18, 0xF7	; 247
    11c4:	3f 4f       	sbci	r19, 0xFF	; 255
    11c6:	ae 01       	movw	r20, r28
    11c8:	4f 5f       	subi	r20, 0xFF	; 255
    11ca:	5f 4f       	sbci	r21, 0xFF	; 255
    11cc:	be 01       	movw	r22, r28
    11ce:	63 5f       	subi	r22, 0xF3	; 243
    11d0:	7f 4f       	sbci	r23, 0xFF	; 255
    11d2:	82 e0       	ldi	r24, 0x02	; 2
    11d4:	ae d8       	rcall	.-3748   	; 0x332 <CAN_pull_packet>

    // If the data packet is crap
    // throw_error_code(ERROR_LEVEL_WARN, ERROR_CANBUS_2_RESPONSE_MALFORMED);
		
}
    11d6:	2d 96       	adiw	r28, 0x0d	; 13
    11d8:	0f b6       	in	r0, 0x3f	; 63
    11da:	f8 94       	cli
    11dc:	de bf       	out	0x3e, r29	; 62
    11de:	0f be       	out	0x3f, r0	; 63
    11e0:	cd bf       	out	0x3d, r28	; 61
    11e2:	df 91       	pop	r29
    11e4:	cf 91       	pop	r28
    11e6:	ff 91       	pop	r31
    11e8:	ef 91       	pop	r30
    11ea:	bf 91       	pop	r27
    11ec:	af 91       	pop	r26
    11ee:	9f 91       	pop	r25
    11f0:	8f 91       	pop	r24
    11f2:	7f 91       	pop	r23
    11f4:	6f 91       	pop	r22
    11f6:	5f 91       	pop	r21
    11f8:	4f 91       	pop	r20
    11fa:	3f 91       	pop	r19
    11fc:	2f 91       	pop	r18
    11fe:	0f 90       	pop	r0
    1200:	0b be       	out	0x3b, r0	; 59
    1202:	0f 90       	pop	r0
    1204:	0f be       	out	0x3f, r0	; 63
    1206:	0f 90       	pop	r0
    1208:	1f 90       	pop	r1
    120a:	18 95       	reti

0000120c <__vector_9>:

/**
 * @brief Called whenever CANBUS 3 interupt is triggered
 *        * When ever there is data waiting in CAN 3
 */
ISR(PCINT0_vect) {
    120c:	1f 92       	push	r1
    120e:	0f 92       	push	r0
    1210:	0f b6       	in	r0, 0x3f	; 63
    1212:	0f 92       	push	r0
    1214:	11 24       	eor	r1, r1
    1216:	0b b6       	in	r0, 0x3b	; 59
    1218:	0f 92       	push	r0
    121a:	2f 93       	push	r18
    121c:	3f 93       	push	r19
    121e:	4f 93       	push	r20
    1220:	5f 93       	push	r21
    1222:	6f 93       	push	r22
    1224:	7f 93       	push	r23
    1226:	8f 93       	push	r24
    1228:	9f 93       	push	r25
    122a:	af 93       	push	r26
    122c:	bf 93       	push	r27
    122e:	ef 93       	push	r30
    1230:	ff 93       	push	r31
    1232:	cf 93       	push	r28
    1234:	df 93       	push	r29
    1236:	cd b7       	in	r28, 0x3d	; 61
    1238:	de b7       	in	r29, 0x3e	; 62
    123a:	2d 97       	sbiw	r28, 0x0d	; 13
    123c:	de bf       	out	0x3e, r29	; 62
    123e:	cd bf       	out	0x3d, r28	; 61
	uint8_t data[8];
	uint32_t ID;
	uint8_t numBytes;
	//led_toggle();
	// Get the data from the CAN bus and process it
	CAN_pull_packet(DATA_CAN, &numBytes, data, &ID);
    1240:	9e 01       	movw	r18, r28
    1242:	27 5f       	subi	r18, 0xF7	; 247
    1244:	3f 4f       	sbci	r19, 0xFF	; 255
    1246:	ae 01       	movw	r20, r28
    1248:	4f 5f       	subi	r20, 0xFF	; 255
    124a:	5f 4f       	sbci	r21, 0xFF	; 255
    124c:	be 01       	movw	r22, r28
    124e:	63 5f       	subi	r22, 0xF3	; 243
    1250:	7f 4f       	sbci	r23, 0xFF	; 255
    1252:	84 e0       	ldi	r24, 0x04	; 4
    1254:	6e d8       	rcall	.-3876   	; 0x332 <CAN_pull_packet>
    // If the data packet is crap
    // throw_error_code(ERROR_LEVEL_WARN, ERROR_CANBUS_3_RESPONSE_MALFORMED);

	

    1256:	2d 96       	adiw	r28, 0x0d	; 13
    1258:	0f b6       	in	r0, 0x3f	; 63
    125a:	f8 94       	cli
    125c:	de bf       	out	0x3e, r29	; 62
    125e:	0f be       	out	0x3f, r0	; 63
    1260:	cd bf       	out	0x3d, r28	; 61
    1262:	df 91       	pop	r29
    1264:	cf 91       	pop	r28
    1266:	ff 91       	pop	r31
    1268:	ef 91       	pop	r30
    126a:	bf 91       	pop	r27
    126c:	af 91       	pop	r26
    126e:	9f 91       	pop	r25
    1270:	8f 91       	pop	r24
    1272:	7f 91       	pop	r23
    1274:	6f 91       	pop	r22
    1276:	5f 91       	pop	r21
    1278:	4f 91       	pop	r20
    127a:	3f 91       	pop	r19
    127c:	2f 91       	pop	r18
    127e:	0f 90       	pop	r0
    1280:	0b be       	out	0x3b, r0	; 59
    1282:	0f 90       	pop	r0
    1284:	0f be       	out	0x3f, r0	; 63
    1286:	0f 90       	pop	r0
    1288:	1f 90       	pop	r1
    128a:	18 95       	reti

0000128c <MCP2515_CS_low>:
			MCP2515_reg_write(CANbus, MCP2515_RXM1EID0, IDmsk & 0xFF );
			if(IDmsk) MCP2515_reg_write(CANbus, MCP2515_RXB1CTRL, 0b00000000);	//Enable reception using masks and filters. 
			else MCP2515_reg_write(CANbus, MCP2515_RXB1CTRL, 0b01100000);		//Enable reception without masks and filters.
	}	
	return 1;
}
    128c:	82 30       	cpi	r24, 0x02	; 2
    128e:	51 f0       	breq	.+20     	; 0x12a4 <MCP2515_CS_low+0x18>
    1290:	84 30       	cpi	r24, 0x04	; 4
    1292:	71 f0       	breq	.+28     	; 0x12b0 <MCP2515_CS_low+0x24>
    1294:	81 30       	cpi	r24, 0x01	; 1
    1296:	69 f4       	brne	.+26     	; 0x12b2 <MCP2515_CS_low+0x26>
    1298:	e2 e0       	ldi	r30, 0x02	; 2
    129a:	f1 e0       	ldi	r31, 0x01	; 1
    129c:	80 81       	ld	r24, Z
    129e:	8e 7f       	andi	r24, 0xFE	; 254
    12a0:	80 83       	st	Z, r24
    12a2:	08 95       	ret
    12a4:	e2 e0       	ldi	r30, 0x02	; 2
    12a6:	f1 e0       	ldi	r31, 0x01	; 1
    12a8:	80 81       	ld	r24, Z
    12aa:	8d 7f       	andi	r24, 0xFD	; 253
    12ac:	80 83       	st	Z, r24
    12ae:	08 95       	ret
    12b0:	28 98       	cbi	0x05, 0	; 5
    12b2:	08 95       	ret

000012b4 <MCP2515_CS_high>:
    12b4:	82 30       	cpi	r24, 0x02	; 2
    12b6:	51 f0       	breq	.+20     	; 0x12cc <MCP2515_CS_high+0x18>
    12b8:	84 30       	cpi	r24, 0x04	; 4
    12ba:	71 f0       	breq	.+28     	; 0x12d8 <MCP2515_CS_high+0x24>
    12bc:	81 30       	cpi	r24, 0x01	; 1
    12be:	69 f4       	brne	.+26     	; 0x12da <MCP2515_CS_high+0x26>
    12c0:	e2 e0       	ldi	r30, 0x02	; 2
    12c2:	f1 e0       	ldi	r31, 0x01	; 1
    12c4:	80 81       	ld	r24, Z
    12c6:	81 60       	ori	r24, 0x01	; 1
    12c8:	80 83       	st	Z, r24
    12ca:	08 95       	ret
    12cc:	e2 e0       	ldi	r30, 0x02	; 2
    12ce:	f1 e0       	ldi	r31, 0x01	; 1
    12d0:	80 81       	ld	r24, Z
    12d2:	82 60       	ori	r24, 0x02	; 2
    12d4:	80 83       	st	Z, r24
    12d6:	08 95       	ret
    12d8:	28 9a       	sbi	0x05, 0	; 5
    12da:	08 95       	ret

000012dc <MCP2515_reg_write>:
    12dc:	1f 93       	push	r17
    12de:	cf 93       	push	r28
    12e0:	df 93       	push	r29
    12e2:	c8 2f       	mov	r28, r24
    12e4:	16 2f       	mov	r17, r22
    12e6:	d4 2f       	mov	r29, r20
    12e8:	d1 df       	rcall	.-94     	; 0x128c <MCP2515_CS_low>
    12ea:	82 e0       	ldi	r24, 0x02	; 2
    12ec:	8c d1       	rcall	.+792    	; 0x1606 <SPI_send_byte>
    12ee:	81 2f       	mov	r24, r17
    12f0:	8a d1       	rcall	.+788    	; 0x1606 <SPI_send_byte>
    12f2:	8d 2f       	mov	r24, r29
    12f4:	88 d1       	rcall	.+784    	; 0x1606 <SPI_send_byte>
    12f6:	8c 2f       	mov	r24, r28
    12f8:	dd df       	rcall	.-70     	; 0x12b4 <MCP2515_CS_high>
    12fa:	df 91       	pop	r29
    12fc:	cf 91       	pop	r28
    12fe:	1f 91       	pop	r17
    1300:	08 95       	ret

00001302 <MCP2515_instruction>:
    1302:	cf 93       	push	r28
    1304:	df 93       	push	r29
    1306:	c8 2f       	mov	r28, r24
    1308:	d6 2f       	mov	r29, r22
    130a:	c0 df       	rcall	.-128    	; 0x128c <MCP2515_CS_low>
    130c:	8d 2f       	mov	r24, r29
    130e:	7b d1       	rcall	.+758    	; 0x1606 <SPI_send_byte>
    1310:	8c 2f       	mov	r24, r28
    1312:	d0 df       	rcall	.-96     	; 0x12b4 <MCP2515_CS_high>
    1314:	df 91       	pop	r29
    1316:	cf 91       	pop	r28
    1318:	08 95       	ret

0000131a <MCP2515_bit_modify>:
    131a:	0f 93       	push	r16
    131c:	1f 93       	push	r17
    131e:	cf 93       	push	r28
    1320:	df 93       	push	r29
    1322:	c8 2f       	mov	r28, r24
    1324:	06 2f       	mov	r16, r22
    1326:	d4 2f       	mov	r29, r20
    1328:	12 2f       	mov	r17, r18
    132a:	b0 df       	rcall	.-160    	; 0x128c <MCP2515_CS_low>
    132c:	85 e0       	ldi	r24, 0x05	; 5
    132e:	6b d1       	rcall	.+726    	; 0x1606 <SPI_send_byte>
    1330:	80 2f       	mov	r24, r16
    1332:	69 d1       	rcall	.+722    	; 0x1606 <SPI_send_byte>
    1334:	81 2f       	mov	r24, r17
    1336:	67 d1       	rcall	.+718    	; 0x1606 <SPI_send_byte>
    1338:	8d 2f       	mov	r24, r29
    133a:	65 d1       	rcall	.+714    	; 0x1606 <SPI_send_byte>
    133c:	8c 2f       	mov	r24, r28
    133e:	ba df       	rcall	.-140    	; 0x12b4 <MCP2515_CS_high>
    1340:	df 91       	pop	r29
    1342:	cf 91       	pop	r28
    1344:	1f 91       	pop	r17
    1346:	0f 91       	pop	r16
    1348:	08 95       	ret

0000134a <MCP2515_init>:
    134a:	cf 93       	push	r28
    134c:	c8 2f       	mov	r28, r24
    134e:	60 ec       	ldi	r22, 0xC0	; 192
    1350:	d8 df       	rcall	.-80     	; 0x1302 <MCP2515_instruction>
    1352:	20 ee       	ldi	r18, 0xE0	; 224
    1354:	40 e8       	ldi	r20, 0x80	; 128
    1356:	6f e0       	ldi	r22, 0x0F	; 15
    1358:	8c 2f       	mov	r24, r28
    135a:	df df       	rcall	.-66     	; 0x131a <MCP2515_bit_modify>
    135c:	44 e0       	ldi	r20, 0x04	; 4
    135e:	6a e2       	ldi	r22, 0x2A	; 42
    1360:	8c 2f       	mov	r24, r28
    1362:	bc df       	rcall	.-136    	; 0x12dc <MCP2515_reg_write>
    1364:	4a ec       	ldi	r20, 0xCA	; 202
    1366:	69 e2       	ldi	r22, 0x29	; 41
    1368:	8c 2f       	mov	r24, r28
    136a:	b8 df       	rcall	.-144    	; 0x12dc <MCP2515_reg_write>
    136c:	41 e0       	ldi	r20, 0x01	; 1
    136e:	68 e2       	ldi	r22, 0x28	; 40
    1370:	8c 2f       	mov	r24, r28
    1372:	b4 df       	rcall	.-152    	; 0x12dc <MCP2515_reg_write>
    1374:	43 e0       	ldi	r20, 0x03	; 3
    1376:	6b e2       	ldi	r22, 0x2B	; 43
    1378:	8c 2f       	mov	r24, r28
    137a:	b0 df       	rcall	.-160    	; 0x12dc <MCP2515_reg_write>
    137c:	41 e0       	ldi	r20, 0x01	; 1
    137e:	6d e0       	ldi	r22, 0x0D	; 13
    1380:	8c 2f       	mov	r24, r28
    1382:	ac df       	rcall	.-168    	; 0x12dc <MCP2515_reg_write>
    1384:	28 ee       	ldi	r18, 0xE8	; 232
    1386:	48 e0       	ldi	r20, 0x08	; 8
    1388:	6f e0       	ldi	r22, 0x0F	; 15
    138a:	8c 2f       	mov	r24, r28
    138c:	c6 df       	rcall	.-116    	; 0x131a <MCP2515_bit_modify>
    138e:	cf 91       	pop	r28
    1390:	08 95       	ret

00001392 <MCP2515_PullCanPacket>:
    1392:	7f 92       	push	r7
    1394:	8f 92       	push	r8
    1396:	9f 92       	push	r9
    1398:	af 92       	push	r10
    139a:	bf 92       	push	r11
    139c:	cf 92       	push	r12
    139e:	df 92       	push	r13
    13a0:	ef 92       	push	r14
    13a2:	ff 92       	push	r15
    13a4:	0f 93       	push	r16
    13a6:	1f 93       	push	r17
    13a8:	cf 93       	push	r28
    13aa:	df 93       	push	r29
    13ac:	cd b7       	in	r28, 0x3d	; 61
    13ae:	de b7       	in	r29, 0x3e	; 62
    13b0:	2d 97       	sbiw	r28, 0x0d	; 13
    13b2:	0f b6       	in	r0, 0x3f	; 63
    13b4:	f8 94       	cli
    13b6:	de bf       	out	0x3e, r29	; 62
    13b8:	0f be       	out	0x3f, r0	; 63
    13ba:	cd bf       	out	0x3d, r28	; 61
    13bc:	78 2e       	mov	r7, r24
    13be:	4a 01       	movw	r8, r20
    13c0:	59 01       	movw	r10, r18
    13c2:	61 37       	cpi	r22, 0x71	; 113
    13c4:	28 f4       	brcc	.+10     	; 0x13d0 <MCP2515_PullCanPacket+0x3e>
    13c6:	0f 2e       	mov	r0, r31
    13c8:	f0 e9       	ldi	r31, 0x90	; 144
    13ca:	ff 2e       	mov	r15, r31
    13cc:	f0 2d       	mov	r31, r0
    13ce:	04 c0       	rjmp	.+8      	; 0x13d8 <MCP2515_PullCanPacket+0x46>
    13d0:	0f 2e       	mov	r0, r31
    13d2:	f4 e9       	ldi	r31, 0x94	; 148
    13d4:	ff 2e       	mov	r15, r31
    13d6:	f0 2d       	mov	r31, r0
    13d8:	87 2d       	mov	r24, r7
    13da:	58 df       	rcall	.-336    	; 0x128c <MCP2515_CS_low>
    13dc:	8f 2d       	mov	r24, r15
    13de:	13 d1       	rcall	.+550    	; 0x1606 <SPI_send_byte>
    13e0:	ce 01       	movw	r24, r28
    13e2:	01 96       	adiw	r24, 0x01	; 1
    13e4:	7c 01       	movw	r14, r24
    13e6:	6e 01       	movw	r12, r28
    13e8:	9e e0       	ldi	r25, 0x0E	; 14
    13ea:	c9 0e       	add	r12, r25
    13ec:	d1 1c       	adc	r13, r1
    13ee:	80 e0       	ldi	r24, 0x00	; 0
    13f0:	0a d1       	rcall	.+532    	; 0x1606 <SPI_send_byte>
    13f2:	f7 01       	movw	r30, r14
    13f4:	81 93       	st	Z+, r24
    13f6:	7f 01       	movw	r14, r30
    13f8:	ec 15       	cp	r30, r12
    13fa:	fd 05       	cpc	r31, r13
    13fc:	c1 f7       	brne	.-16     	; 0x13ee <MCP2515_PullCanPacket+0x5c>
    13fe:	2a 81       	ldd	r18, Y+2	; 0x02
    1400:	89 81       	ldd	r24, Y+1	; 0x01
    1402:	90 e0       	ldi	r25, 0x00	; 0
    1404:	a0 e0       	ldi	r26, 0x00	; 0
    1406:	b0 e0       	ldi	r27, 0x00	; 0
    1408:	07 2e       	mov	r0, r23
    140a:	75 e1       	ldi	r23, 0x15	; 21
    140c:	88 0f       	add	r24, r24
    140e:	99 1f       	adc	r25, r25
    1410:	aa 1f       	adc	r26, r26
    1412:	bb 1f       	adc	r27, r27
    1414:	7a 95       	dec	r23
    1416:	d1 f7       	brne	.-12     	; 0x140c <MCP2515_PullCanPacket+0x7a>
    1418:	70 2d       	mov	r23, r0
    141a:	3b 81       	ldd	r19, Y+3	; 0x03
    141c:	93 2b       	or	r25, r19
    141e:	3c 81       	ldd	r19, Y+4	; 0x04
    1420:	83 2b       	or	r24, r19
    1422:	42 2f       	mov	r20, r18
    1424:	40 7e       	andi	r20, 0xE0	; 224
    1426:	50 e0       	ldi	r21, 0x00	; 0
    1428:	60 e0       	ldi	r22, 0x00	; 0
    142a:	70 e0       	ldi	r23, 0x00	; 0
    142c:	03 2e       	mov	r0, r19
    142e:	3d e0       	ldi	r19, 0x0D	; 13
    1430:	44 0f       	add	r20, r20
    1432:	55 1f       	adc	r21, r21
    1434:	66 1f       	adc	r22, r22
    1436:	77 1f       	adc	r23, r23
    1438:	3a 95       	dec	r19
    143a:	d1 f7       	brne	.-12     	; 0x1430 <MCP2515_PullCanPacket+0x9e>
    143c:	30 2d       	mov	r19, r0
    143e:	84 2b       	or	r24, r20
    1440:	95 2b       	or	r25, r21
    1442:	a6 2b       	or	r26, r22
    1444:	b7 2b       	or	r27, r23
    1446:	23 70       	andi	r18, 0x03	; 3
    1448:	a2 2b       	or	r26, r18
    144a:	f8 01       	movw	r30, r16
    144c:	80 83       	st	Z, r24
    144e:	91 83       	std	Z+1, r25	; 0x01
    1450:	a2 83       	std	Z+2, r26	; 0x02
    1452:	b3 83       	std	Z+3, r27	; 0x03
    1454:	4d 85       	ldd	r20, Y+13	; 0x0d
    1456:	4f 70       	andi	r20, 0x0F	; 15
    1458:	f4 01       	movw	r30, r8
    145a:	40 83       	st	Z, r20
    145c:	50 e0       	ldi	r21, 0x00	; 0
    145e:	be 01       	movw	r22, r28
    1460:	6b 5f       	subi	r22, 0xFB	; 251
    1462:	7f 4f       	sbci	r23, 0xFF	; 255
    1464:	c5 01       	movw	r24, r10
    1466:	2a d2       	rcall	.+1108   	; 0x18bc <memcpy>
    1468:	87 2d       	mov	r24, r7
    146a:	24 df       	rcall	.-440    	; 0x12b4 <MCP2515_CS_high>
    146c:	2d 96       	adiw	r28, 0x0d	; 13
    146e:	0f b6       	in	r0, 0x3f	; 63
    1470:	f8 94       	cli
    1472:	de bf       	out	0x3e, r29	; 62
    1474:	0f be       	out	0x3f, r0	; 63
    1476:	cd bf       	out	0x3d, r28	; 61
    1478:	df 91       	pop	r29
    147a:	cf 91       	pop	r28
    147c:	1f 91       	pop	r17
    147e:	0f 91       	pop	r16
    1480:	ff 90       	pop	r15
    1482:	ef 90       	pop	r14
    1484:	df 90       	pop	r13
    1486:	cf 90       	pop	r12
    1488:	bf 90       	pop	r11
    148a:	af 90       	pop	r10
    148c:	9f 90       	pop	r9
    148e:	8f 90       	pop	r8
    1490:	7f 90       	pop	r7
    1492:	08 95       	ret

00001494 <MCP2515_reg_read>:
    1494:	cf 93       	push	r28
    1496:	df 93       	push	r29
    1498:	c8 2f       	mov	r28, r24
    149a:	d6 2f       	mov	r29, r22
    149c:	f7 de       	rcall	.-530    	; 0x128c <MCP2515_CS_low>
    149e:	83 e0       	ldi	r24, 0x03	; 3
    14a0:	b2 d0       	rcall	.+356    	; 0x1606 <SPI_send_byte>
    14a2:	8d 2f       	mov	r24, r29
    14a4:	b0 d0       	rcall	.+352    	; 0x1606 <SPI_send_byte>
    14a6:	80 e0       	ldi	r24, 0x00	; 0
    14a8:	ae d0       	rcall	.+348    	; 0x1606 <SPI_send_byte>
    14aa:	d8 2f       	mov	r29, r24
    14ac:	8c 2f       	mov	r24, r28
    14ae:	02 df       	rcall	.-508    	; 0x12b4 <MCP2515_CS_high>
    14b0:	8d 2f       	mov	r24, r29
    14b2:	df 91       	pop	r29
    14b4:	cf 91       	pop	r28
    14b6:	08 95       	ret

000014b8 <MCP2515_findFreeTxBuffer>:
    14b8:	cf 93       	push	r28
    14ba:	c8 2f       	mov	r28, r24
    14bc:	60 e3       	ldi	r22, 0x30	; 48
    14be:	ea df       	rcall	.-44     	; 0x1494 <MCP2515_reg_read>
    14c0:	83 ff       	sbrs	r24, 3
    14c2:	0c c0       	rjmp	.+24     	; 0x14dc <MCP2515_findFreeTxBuffer+0x24>
    14c4:	60 e4       	ldi	r22, 0x40	; 64
    14c6:	8c 2f       	mov	r24, r28
    14c8:	e5 df       	rcall	.-54     	; 0x1494 <MCP2515_reg_read>
    14ca:	83 ff       	sbrs	r24, 3
    14cc:	09 c0       	rjmp	.+18     	; 0x14e0 <MCP2515_findFreeTxBuffer+0x28>
    14ce:	60 e5       	ldi	r22, 0x50	; 80
    14d0:	8c 2f       	mov	r24, r28
    14d2:	e0 df       	rcall	.-64     	; 0x1494 <MCP2515_reg_read>
    14d4:	83 ff       	sbrs	r24, 3
    14d6:	06 c0       	rjmp	.+12     	; 0x14e4 <MCP2515_findFreeTxBuffer+0x2c>
    14d8:	80 e0       	ldi	r24, 0x00	; 0
    14da:	05 c0       	rjmp	.+10     	; 0x14e6 <MCP2515_findFreeTxBuffer+0x2e>
    14dc:	80 e3       	ldi	r24, 0x30	; 48
    14de:	03 c0       	rjmp	.+6      	; 0x14e6 <MCP2515_findFreeTxBuffer+0x2e>
    14e0:	80 e4       	ldi	r24, 0x40	; 64
    14e2:	01 c0       	rjmp	.+2      	; 0x14e6 <MCP2515_findFreeTxBuffer+0x2e>
    14e4:	80 e5       	ldi	r24, 0x50	; 80
    14e6:	cf 91       	pop	r28
    14e8:	08 95       	ret

000014ea <MCP2515_TX>:

void MCP2515_TX(uint8_t CANbus, int8_t mob, uint8_t numBytes, uint8_t * data, uint32_t ID)
{
    14ea:	8f 92       	push	r8
    14ec:	9f 92       	push	r9
    14ee:	af 92       	push	r10
    14f0:	bf 92       	push	r11
    14f2:	df 92       	push	r13
    14f4:	ef 92       	push	r14
    14f6:	ff 92       	push	r15
    14f8:	0f 93       	push	r16
    14fa:	1f 93       	push	r17
    14fc:	cf 93       	push	r28
    14fe:	df 93       	push	r29
	if(mob == 0)return;						//no free mob or invalid mob
    1500:	66 23       	and	r22, r22
    1502:	09 f4       	brne	.+2      	; 0x1506 <MCP2515_TX+0x1c>
    1504:	63 c0       	rjmp	.+198    	; 0x15cc <MCP2515_TX+0xe2>
    1506:	47 01       	movw	r8, r14
    1508:	58 01       	movw	r10, r16
    150a:	c3 2f       	mov	r28, r19
    150c:	e2 2e       	mov	r14, r18
    150e:	d4 2e       	mov	r13, r20
    1510:	f6 2e       	mov	r15, r22
    1512:	d8 2f       	mov	r29, r24
	MCP2515_reg_write(CANbus, mob, 0x03);			//we shall set this to the highest priority so that it sends it immediately.
    1514:	43 e0       	ldi	r20, 0x03	; 3
    1516:	e2 de       	rcall	.-572    	; 0x12dc <MCP2515_reg_write>
	MCP2515_reg_write(CANbus, mob+1, (ID>>21) & 0xFF);	//shift the ID data to fill the respective MCP registers
    1518:	b5 01       	movw	r22, r10
    151a:	a4 01       	movw	r20, r8
    151c:	03 2e       	mov	r0, r19
    151e:	35 e1       	ldi	r19, 0x15	; 21
    1520:	76 95       	lsr	r23
    1522:	67 95       	ror	r22
    1524:	57 95       	ror	r21
    1526:	47 95       	ror	r20
    1528:	3a 95       	dec	r19
    152a:	d1 f7       	brne	.-12     	; 0x1520 <MCP2515_TX+0x36>
    152c:	30 2d       	mov	r19, r0
    152e:	81 e0       	ldi	r24, 0x01	; 1
    1530:	8f 0d       	add	r24, r15
    1532:	68 2f       	mov	r22, r24
    1534:	8d 2f       	mov	r24, r29
    1536:	d2 de       	rcall	.-604    	; 0x12dc <MCP2515_reg_write>
	MCP2515_reg_write(CANbus, mob+2, (((ID>>13) & 224)| ((ID>>16) & 3) | ((1<<3) & 0xFF)));	//set the EXIDE bit, which makes it extended (CAN 2.0B)
    1538:	b5 01       	movw	r22, r10
    153a:	a4 01       	movw	r20, r8
    153c:	03 2e       	mov	r0, r19
    153e:	3d e0       	ldi	r19, 0x0D	; 13
    1540:	76 95       	lsr	r23
    1542:	67 95       	ror	r22
    1544:	57 95       	ror	r21
    1546:	47 95       	ror	r20
    1548:	3a 95       	dec	r19
    154a:	d1 f7       	brne	.-12     	; 0x1540 <MCP2515_TX+0x56>
    154c:	30 2d       	mov	r19, r0
    154e:	40 7e       	andi	r20, 0xE0	; 224
    1550:	8a 2d       	mov	r24, r10
    1552:	83 70       	andi	r24, 0x03	; 3
    1554:	48 2b       	or	r20, r24
    1556:	48 60       	ori	r20, 0x08	; 8
    1558:	62 e0       	ldi	r22, 0x02	; 2
    155a:	6f 0d       	add	r22, r15
    155c:	8d 2f       	mov	r24, r29
    155e:	be de       	rcall	.-644    	; 0x12dc <MCP2515_reg_write>
	MCP2515_reg_write(CANbus, mob+3, (ID>>8) & 0xFF );
    1560:	77 27       	eor	r23, r23
    1562:	6b 2d       	mov	r22, r11
    1564:	5a 2d       	mov	r21, r10
    1566:	49 2d       	mov	r20, r9
    1568:	83 e0       	ldi	r24, 0x03	; 3
    156a:	8f 0d       	add	r24, r15
    156c:	68 2f       	mov	r22, r24
    156e:	8d 2f       	mov	r24, r29
    1570:	b5 de       	rcall	.-662    	; 0x12dc <MCP2515_reg_write>
	MCP2515_reg_write(CANbus, mob+4, ID & 0xFF );
    1572:	64 e0       	ldi	r22, 0x04	; 4
    1574:	6f 0d       	add	r22, r15
    1576:	48 2d       	mov	r20, r8
    1578:	8d 2f       	mov	r24, r29
    157a:	b0 de       	rcall	.-672    	; 0x12dc <MCP2515_reg_write>
	MCP2515_reg_write(CANbus, mob+5, numBytes);		//set how many bytes we wish to send
    157c:	65 e0       	ldi	r22, 0x05	; 5
    157e:	6f 0d       	add	r22, r15
    1580:	4d 2d       	mov	r20, r13
    1582:	8d 2f       	mov	r24, r29
    1584:	ab de       	rcall	.-682    	; 0x12dc <MCP2515_reg_write>
    1586:	dd 20       	and	r13, r13
	//MCP2515_reg_write(CANbus, mob+2, (1<<3));
	//MCP2515_reg_write(CANbus, mob+3, 0);
	//MCP2515_reg_write(CANbus, mob+4, 0);
	//MCP2515_reg_write(CANbus, mob+5, 0);

	for (uint8_t byteCount = 0; byteCount < numBytes; byteCount++)
    1588:	89 f0       	breq	.+34     	; 0x15ac <MCP2515_TX+0xc2>
    158a:	0e 2d       	mov	r16, r14
    158c:	1c 2f       	mov	r17, r28
    158e:	c6 e0       	ldi	r28, 0x06	; 6
    1590:	cf 0d       	add	r28, r15
    1592:	46 e0       	ldi	r20, 0x06	; 6
    1594:	4d 0d       	add	r20, r13
    1596:	e4 2e       	mov	r14, r20
    1598:	ef 0c       	add	r14, r15
	{
		MCP2515_reg_write(CANbus, mob+6+byteCount, *(data+byteCount));	//fill the data bytes register.
    159a:	f8 01       	movw	r30, r16
    159c:	41 91       	ld	r20, Z+
    159e:	8f 01       	movw	r16, r30
    15a0:	6c 2f       	mov	r22, r28
    15a2:	8d 2f       	mov	r24, r29
    15a4:	9b de       	rcall	.-714    	; 0x12dc <MCP2515_reg_write>
    15a6:	cf 5f       	subi	r28, 0xFF	; 255
    15a8:	ce 11       	cpse	r28, r14
	//MCP2515_reg_write(CANbus, mob+2, (1<<3));
	//MCP2515_reg_write(CANbus, mob+3, 0);
	//MCP2515_reg_write(CANbus, mob+4, 0);
	//MCP2515_reg_write(CANbus, mob+5, 0);

	for (uint8_t byteCount = 0; byteCount < numBytes; byteCount++)
    15aa:	f7 cf       	rjmp	.-18     	; 0x159a <MCP2515_TX+0xb0>
    15ac:	8f 2d       	mov	r24, r15
	{
		MCP2515_reg_write(CANbus, mob+6+byteCount, *(data+byteCount));	//fill the data bytes register.
	}
	MCP2515_instruction(CANbus, 128|(1<<((mob>>4) - 3)));		//creates an instruction that matches the mob that is chosen.
    15ae:	85 95       	asr	r24
    15b0:	85 95       	asr	r24
    15b2:	85 95       	asr	r24
    15b4:	85 95       	asr	r24
    15b6:	83 50       	subi	r24, 0x03	; 3
    15b8:	61 e0       	ldi	r22, 0x01	; 1
    15ba:	70 e0       	ldi	r23, 0x00	; 0
    15bc:	02 c0       	rjmp	.+4      	; 0x15c2 <MCP2515_TX+0xd8>
    15be:	66 0f       	add	r22, r22
    15c0:	77 1f       	adc	r23, r23
    15c2:	8a 95       	dec	r24
    15c4:	e2 f7       	brpl	.-8      	; 0x15be <MCP2515_TX+0xd4>
    15c6:	60 68       	ori	r22, 0x80	; 128
    15c8:	8d 2f       	mov	r24, r29
    15ca:	9b de       	rcall	.-714    	; 0x1302 <MCP2515_instruction>
    15cc:	df 91       	pop	r29
	//PORTC &= ~(1<<PINC7);		//Drop the TX
	//_delay_us(50);
	//PORTC |= (1<<PINC7);		
}
    15ce:	cf 91       	pop	r28
    15d0:	1f 91       	pop	r17
    15d2:	0f 91       	pop	r16
    15d4:	ff 90       	pop	r15
    15d6:	ef 90       	pop	r14
    15d8:	df 90       	pop	r13
    15da:	bf 90       	pop	r11
    15dc:	af 90       	pop	r10
    15de:	9f 90       	pop	r9
    15e0:	8f 90       	pop	r8
    15e2:	08 95       	ret

000015e4 <MCP2515_check_receive_status>:
    15e4:	cf 93       	push	r28


uint8_t MCP2515_check_receive_status(uint8_t CANbus)
{
    15e6:	df 93       	push	r29
    15e8:	c8 2f       	mov	r28, r24
	uint8_t status;
	MCP2515_CS_low(CANbus);			//unset CS so MCP2515 knows we are talking
    15ea:	50 de       	rcall	.-864    	; 0x128c <MCP2515_CS_low>
	SPI_send_byte(MCP2515_RXSTATUS);
    15ec:	80 eb       	ldi	r24, 0xB0	; 176
    15ee:	0b d0       	rcall	.+22     	; 0x1606 <SPI_send_byte>
	status = SPI_send_byte(0x00);						//send zeros to get data
    15f0:	80 e0       	ldi	r24, 0x00	; 0
    15f2:	09 d0       	rcall	.+18     	; 0x1606 <SPI_send_byte>
    15f4:	d8 2f       	mov	r29, r24
	SPI_send_byte(0x00);							//MCP2515 will repeat the data output, so send another batch of zeros
    15f6:	80 e0       	ldi	r24, 0x00	; 0
    15f8:	06 d0       	rcall	.+12     	; 0x1606 <SPI_send_byte>
	MCP2515_CS_high(CANbus);			//set the CS
    15fa:	8c 2f       	mov	r24, r28
    15fc:	5b de       	rcall	.-842    	; 0x12b4 <MCP2515_CS_high>
    15fe:	8d 2f       	mov	r24, r29
	return status;
}
    1600:	df 91       	pop	r29
    1602:	cf 91       	pop	r28
    1604:	08 95       	ret

00001606 <SPI_send_byte>:
#include "SPI.h"

uint8_t SPI_send_byte(uint8_t c)
{
	SPDR = c;					//write data to the transmission register. Writing to this initiates transmission.
    1606:	8e bd       	out	0x2e, r24	; 46
	while(!(SPSR & (1<<SPIF)));
    1608:	0d b4       	in	r0, 0x2d	; 45
    160a:	07 fe       	sbrs	r0, 7
    160c:	fd cf       	rjmp	.-6      	; 0x1608 <SPI_send_byte+0x2>
	return SPDR;				//return any data that was shifted into this register upon transmission.
    160e:	8e b5       	in	r24, 0x2e	; 46
}
    1610:	08 95       	ret

00001612 <SPI_init>:

void SPI_init()
{
	//MCUCR &= ~(1<<SPIPS);		//make sure we are getting spi not on the _A spi pins.
	SPCR = (0<<SPIE)|(1<<SPE)|(0<<DORD)|(1<<MSTR)|(0<<CPOL)|(0<<CPHA)|(1<<SPR0)|(0<<SPR1);  //set interrupt, enable SPI, MSB mode, set as master, low is idle, read on leading edge, Set to speed(fosc/64) SPR0=1, SPR1=0
    1612:	81 e5       	ldi	r24, 0x51	; 81
    1614:	8c bd       	out	0x2c, r24	; 44
	SPSR = (1<<SPI2X);	//set whether we want 2x speed or not (1=2x speed).
    1616:	81 e0       	ldi	r24, 0x01	; 1
    1618:	8d bd       	out	0x2d, r24	; 45
	SPDR = 0x00;		//ensure data register has nothing in it
    161a:	1e bc       	out	0x2e, r1	; 46
    161c:	08 95       	ret

0000161e <__vector_25>:
{	
	// Does the RX0 bit of the USART Status and Control Register
	// indicate a char has been received?
	if ( (UCSR1A & (0x80)) ) return 1;
	else return 0;
}
    161e:	1f 92       	push	r1
    1620:	0f 92       	push	r0
    1622:	0f b6       	in	r0, 0x3f	; 63
    1624:	0f 92       	push	r0
    1626:	11 24       	eor	r1, r1
    1628:	0b b6       	in	r0, 0x3b	; 59
    162a:	0f 92       	push	r0
    162c:	2f 93       	push	r18
    162e:	8f 93       	push	r24
    1630:	9f 93       	push	r25
    1632:	ef 93       	push	r30
    1634:	ff 93       	push	r31
    1636:	80 91 c0 00 	lds	r24, 0x00C0	; 0x8000c0 <__TEXT_REGION_LENGTH__+0x7e00c0>
    163a:	20 91 c6 00 	lds	r18, 0x00C6	; 0x8000c6 <__TEXT_REGION_LENGTH__+0x7e00c6>
    163e:	88 71       	andi	r24, 0x18	; 24
    1640:	e0 91 e7 09 	lds	r30, 0x09E7	; 0x8009e7 <UART_RxHead>
    1644:	ef 5f       	subi	r30, 0xFF	; 255
    1646:	ef 71       	andi	r30, 0x1F	; 31
    1648:	90 91 e6 09 	lds	r25, 0x09E6	; 0x8009e6 <UART_RxTail>
    164c:	e9 17       	cp	r30, r25
    164e:	39 f0       	breq	.+14     	; 0x165e <__vector_25+0x40>
    1650:	e0 93 e7 09 	sts	0x09E7, r30	; 0x8009e7 <UART_RxHead>
    1654:	f0 e0       	ldi	r31, 0x00	; 0
    1656:	e6 51       	subi	r30, 0x16	; 22
    1658:	f6 4f       	sbci	r31, 0xF6	; 246
    165a:	20 83       	st	Z, r18
    165c:	01 c0       	rjmp	.+2      	; 0x1660 <__vector_25+0x42>
    165e:	82 e0       	ldi	r24, 0x02	; 2
    1660:	80 93 e5 09 	sts	0x09E5, r24	; 0x8009e5 <UART_LastRxError>
    1664:	ff 91       	pop	r31
    1666:	ef 91       	pop	r30
    1668:	9f 91       	pop	r25
    166a:	8f 91       	pop	r24
    166c:	2f 91       	pop	r18
    166e:	0f 90       	pop	r0
    1670:	0b be       	out	0x3b, r0	; 59
    1672:	0f 90       	pop	r0
    1674:	0f be       	out	0x3f, r0	; 63
    1676:	0f 90       	pop	r0
    1678:	1f 90       	pop	r1
    167a:	18 95       	reti

0000167c <__vector_36>:
    167c:	1f 92       	push	r1
    167e:	0f 92       	push	r0
    1680:	0f b6       	in	r0, 0x3f	; 63
    1682:	0f 92       	push	r0
    1684:	11 24       	eor	r1, r1
    1686:	0b b6       	in	r0, 0x3b	; 59
    1688:	0f 92       	push	r0
    168a:	2f 93       	push	r18
    168c:	8f 93       	push	r24
    168e:	9f 93       	push	r25
    1690:	ef 93       	push	r30
    1692:	ff 93       	push	r31
    1694:	80 91 c8 00 	lds	r24, 0x00C8	; 0x8000c8 <__TEXT_REGION_LENGTH__+0x7e00c8>
    1698:	20 91 ce 00 	lds	r18, 0x00CE	; 0x8000ce <__TEXT_REGION_LENGTH__+0x7e00ce>
    169c:	88 71       	andi	r24, 0x18	; 24
    169e:	e0 91 a2 09 	lds	r30, 0x09A2	; 0x8009a2 <UART1_RxHead>
    16a2:	ef 5f       	subi	r30, 0xFF	; 255
    16a4:	ef 71       	andi	r30, 0x1F	; 31
    16a6:	90 91 a1 09 	lds	r25, 0x09A1	; 0x8009a1 <UART1_RxTail>
    16aa:	e9 17       	cp	r30, r25
    16ac:	39 f0       	breq	.+14     	; 0x16bc <__vector_36+0x40>
    16ae:	e0 93 a2 09 	sts	0x09A2, r30	; 0x8009a2 <UART1_RxHead>
    16b2:	f0 e0       	ldi	r31, 0x00	; 0
    16b4:	eb 55       	subi	r30, 0x5B	; 91
    16b6:	f6 4f       	sbci	r31, 0xF6	; 246
    16b8:	20 83       	st	Z, r18
    16ba:	01 c0       	rjmp	.+2      	; 0x16be <__vector_36+0x42>
    16bc:	82 e0       	ldi	r24, 0x02	; 2
    16be:	80 93 a0 09 	sts	0x09A0, r24	; 0x8009a0 <UART1_LastRxError>
    16c2:	ff 91       	pop	r31
    16c4:	ef 91       	pop	r30
    16c6:	9f 91       	pop	r25
    16c8:	8f 91       	pop	r24
    16ca:	2f 91       	pop	r18
    16cc:	0f 90       	pop	r0
    16ce:	0b be       	out	0x3b, r0	; 59
    16d0:	0f 90       	pop	r0
    16d2:	0f be       	out	0x3f, r0	; 63
    16d4:	0f 90       	pop	r0
    16d6:	1f 90       	pop	r1
    16d8:	18 95       	reti

000016da <__vector_26>:
    16da:	1f 92       	push	r1
    16dc:	0f 92       	push	r0
    16de:	0f b6       	in	r0, 0x3f	; 63
    16e0:	0f 92       	push	r0
    16e2:	11 24       	eor	r1, r1
    16e4:	0b b6       	in	r0, 0x3b	; 59
    16e6:	0f 92       	push	r0
    16e8:	8f 93       	push	r24
    16ea:	9f 93       	push	r25
    16ec:	ef 93       	push	r30
    16ee:	ff 93       	push	r31
    16f0:	90 91 e9 09 	lds	r25, 0x09E9	; 0x8009e9 <UART_TxHead>
    16f4:	80 91 e8 09 	lds	r24, 0x09E8	; 0x8009e8 <UART_TxTail>
    16f8:	98 17       	cp	r25, r24
    16fa:	69 f0       	breq	.+26     	; 0x1716 <__vector_26+0x3c>
    16fc:	e0 91 e8 09 	lds	r30, 0x09E8	; 0x8009e8 <UART_TxTail>
    1700:	ef 5f       	subi	r30, 0xFF	; 255
    1702:	ef 71       	andi	r30, 0x1F	; 31
    1704:	e0 93 e8 09 	sts	0x09E8, r30	; 0x8009e8 <UART_TxTail>
    1708:	f0 e0       	ldi	r31, 0x00	; 0
    170a:	e6 5f       	subi	r30, 0xF6	; 246
    170c:	f5 4f       	sbci	r31, 0xF5	; 245
    170e:	80 81       	ld	r24, Z
    1710:	80 93 c6 00 	sts	0x00C6, r24	; 0x8000c6 <__TEXT_REGION_LENGTH__+0x7e00c6>
    1714:	05 c0       	rjmp	.+10     	; 0x1720 <__vector_26+0x46>
    1716:	e1 ec       	ldi	r30, 0xC1	; 193
    1718:	f0 e0       	ldi	r31, 0x00	; 0
    171a:	80 81       	ld	r24, Z
    171c:	8f 7d       	andi	r24, 0xDF	; 223
    171e:	80 83       	st	Z, r24
    1720:	ff 91       	pop	r31
    1722:	ef 91       	pop	r30
    1724:	9f 91       	pop	r25
    1726:	8f 91       	pop	r24
    1728:	0f 90       	pop	r0
    172a:	0b be       	out	0x3b, r0	; 59
    172c:	0f 90       	pop	r0
    172e:	0f be       	out	0x3f, r0	; 63
    1730:	0f 90       	pop	r0
    1732:	1f 90       	pop	r1
    1734:	18 95       	reti

00001736 <__vector_37>:
    1736:	1f 92       	push	r1
    1738:	0f 92       	push	r0
    173a:	0f b6       	in	r0, 0x3f	; 63
    173c:	0f 92       	push	r0
    173e:	11 24       	eor	r1, r1
    1740:	0b b6       	in	r0, 0x3b	; 59
    1742:	0f 92       	push	r0
    1744:	8f 93       	push	r24
    1746:	9f 93       	push	r25
    1748:	ef 93       	push	r30
    174a:	ff 93       	push	r31
    174c:	90 91 a4 09 	lds	r25, 0x09A4	; 0x8009a4 <UART1_TxHead>
    1750:	80 91 a3 09 	lds	r24, 0x09A3	; 0x8009a3 <UART1_TxTail>
    1754:	98 17       	cp	r25, r24
    1756:	69 f0       	breq	.+26     	; 0x1772 <__vector_37+0x3c>
    1758:	e0 91 a3 09 	lds	r30, 0x09A3	; 0x8009a3 <UART1_TxTail>
    175c:	ef 5f       	subi	r30, 0xFF	; 255
    175e:	ef 71       	andi	r30, 0x1F	; 31
    1760:	e0 93 a3 09 	sts	0x09A3, r30	; 0x8009a3 <UART1_TxTail>
    1764:	f0 e0       	ldi	r31, 0x00	; 0
    1766:	eb 53       	subi	r30, 0x3B	; 59
    1768:	f6 4f       	sbci	r31, 0xF6	; 246
    176a:	80 81       	ld	r24, Z
    176c:	80 93 ce 00 	sts	0x00CE, r24	; 0x8000ce <__TEXT_REGION_LENGTH__+0x7e00ce>
    1770:	05 c0       	rjmp	.+10     	; 0x177c <__vector_37+0x46>
    1772:	e9 ec       	ldi	r30, 0xC9	; 201
    1774:	f0 e0       	ldi	r31, 0x00	; 0
    1776:	80 81       	ld	r24, Z
    1778:	8f 7d       	andi	r24, 0xDF	; 223
    177a:	80 83       	st	Z, r24
    177c:	ff 91       	pop	r31
    177e:	ef 91       	pop	r30
    1780:	9f 91       	pop	r25
    1782:	8f 91       	pop	r24
    1784:	0f 90       	pop	r0
    1786:	0b be       	out	0x3b, r0	; 59
    1788:	0f 90       	pop	r0
    178a:	0f be       	out	0x3f, r0	; 63
    178c:	0f 90       	pop	r0
    178e:	1f 90       	pop	r1
    1790:	18 95       	reti

00001792 <uart_init>:
    1792:	10 92 e9 09 	sts	0x09E9, r1	; 0x8009e9 <UART_TxHead>
    1796:	10 92 e8 09 	sts	0x09E8, r1	; 0x8009e8 <UART_TxTail>
    179a:	10 92 e7 09 	sts	0x09E7, r1	; 0x8009e7 <UART_RxHead>
    179e:	10 92 e6 09 	sts	0x09E6, r1	; 0x8009e6 <UART_RxTail>
    17a2:	e1 e6       	ldi	r30, 0x61	; 97
    17a4:	f0 e0       	ldi	r31, 0x00	; 0
    17a6:	80 e8       	ldi	r24, 0x80	; 128
    17a8:	80 83       	st	Z, r24
    17aa:	10 82       	st	Z, r1
    17ac:	10 92 c5 00 	sts	0x00C5, r1	; 0x8000c5 <__TEXT_REGION_LENGTH__+0x7e00c5>
    17b0:	87 e6       	ldi	r24, 0x67	; 103
    17b2:	80 93 c4 00 	sts	0x00C4, r24	; 0x8000c4 <__TEXT_REGION_LENGTH__+0x7e00c4>
    17b6:	82 e0       	ldi	r24, 0x02	; 2
    17b8:	80 93 c0 00 	sts	0x00C0, r24	; 0x8000c0 <__TEXT_REGION_LENGTH__+0x7e00c0>
    17bc:	88 e1       	ldi	r24, 0x18	; 24
    17be:	80 93 c1 00 	sts	0x00C1, r24	; 0x8000c1 <__TEXT_REGION_LENGTH__+0x7e00c1>
    17c2:	86 e0       	ldi	r24, 0x06	; 6
    17c4:	80 93 c2 00 	sts	0x00C2, r24	; 0x8000c2 <__TEXT_REGION_LENGTH__+0x7e00c2>
    17c8:	08 95       	ret

000017ca <uart_putc>:
    17ca:	90 91 2a 0a 	lds	r25, 0x0A2A	; 0x800a2a <portKey>
    17ce:	91 11       	cpse	r25, r1
    17d0:	15 c0       	rjmp	.+42     	; 0x17fc <uart_putc+0x32>
    17d2:	20 91 e9 09 	lds	r18, 0x09E9	; 0x8009e9 <UART_TxHead>
    17d6:	2f 5f       	subi	r18, 0xFF	; 255
    17d8:	2f 71       	andi	r18, 0x1F	; 31
    17da:	90 91 e8 09 	lds	r25, 0x09E8	; 0x8009e8 <UART_TxTail>
    17de:	29 17       	cp	r18, r25
    17e0:	e1 f3       	breq	.-8      	; 0x17da <uart_putc+0x10>
    17e2:	e2 2f       	mov	r30, r18
    17e4:	f0 e0       	ldi	r31, 0x00	; 0
    17e6:	e6 5f       	subi	r30, 0xF6	; 246
    17e8:	f5 4f       	sbci	r31, 0xF5	; 245
    17ea:	80 83       	st	Z, r24
    17ec:	20 93 e9 09 	sts	0x09E9, r18	; 0x8009e9 <UART_TxHead>
    17f0:	e1 ec       	ldi	r30, 0xC1	; 193
    17f2:	f0 e0       	ldi	r31, 0x00	; 0
    17f4:	80 81       	ld	r24, Z
    17f6:	80 62       	ori	r24, 0x20	; 32
    17f8:	80 83       	st	Z, r24
    17fa:	08 95       	ret
    17fc:	91 30       	cpi	r25, 0x01	; 1
    17fe:	a1 f4       	brne	.+40     	; 0x1828 <uart_putc+0x5e>
    1800:	20 91 a4 09 	lds	r18, 0x09A4	; 0x8009a4 <UART1_TxHead>
    1804:	2f 5f       	subi	r18, 0xFF	; 255
    1806:	2f 71       	andi	r18, 0x1F	; 31
    1808:	90 91 a3 09 	lds	r25, 0x09A3	; 0x8009a3 <UART1_TxTail>
    180c:	29 17       	cp	r18, r25
    180e:	e1 f3       	breq	.-8      	; 0x1808 <uart_putc+0x3e>
    1810:	e2 2f       	mov	r30, r18
    1812:	f0 e0       	ldi	r31, 0x00	; 0
    1814:	eb 53       	subi	r30, 0x3B	; 59
    1816:	f6 4f       	sbci	r31, 0xF6	; 246
    1818:	80 83       	st	Z, r24
    181a:	20 93 a4 09 	sts	0x09A4, r18	; 0x8009a4 <UART1_TxHead>
    181e:	e9 ec       	ldi	r30, 0xC9	; 201
    1820:	f0 e0       	ldi	r31, 0x00	; 0
    1822:	80 81       	ld	r24, Z
    1824:	80 62       	ori	r24, 0x20	; 32
    1826:	80 83       	st	Z, r24
    1828:	08 95       	ret

0000182a <uart1_putc>:
    182a:	20 91 a4 09 	lds	r18, 0x09A4	; 0x8009a4 <UART1_TxHead>
    182e:	2f 5f       	subi	r18, 0xFF	; 255
    1830:	2f 71       	andi	r18, 0x1F	; 31
    1832:	90 91 a3 09 	lds	r25, 0x09A3	; 0x8009a3 <UART1_TxTail>
    1836:	29 17       	cp	r18, r25
    1838:	e1 f3       	breq	.-8      	; 0x1832 <uart1_putc+0x8>
    183a:	e2 2f       	mov	r30, r18
    183c:	f0 e0       	ldi	r31, 0x00	; 0
    183e:	eb 53       	subi	r30, 0x3B	; 59
    1840:	f6 4f       	sbci	r31, 0xF6	; 246
    1842:	80 83       	st	Z, r24
    1844:	20 93 a4 09 	sts	0x09A4, r18	; 0x8009a4 <UART1_TxHead>
    1848:	e9 ec       	ldi	r30, 0xC9	; 201
    184a:	f0 e0       	ldi	r31, 0x00	; 0
    184c:	80 81       	ld	r24, Z
    184e:	80 62       	ori	r24, 0x20	; 32
    1850:	80 83       	st	Z, r24
    1852:	08 95       	ret

00001854 <uart1_puts>:
    1854:	cf 93       	push	r28
    1856:	df 93       	push	r29
    1858:	ec 01       	movw	r28, r24
    185a:	88 81       	ld	r24, Y
    185c:	88 23       	and	r24, r24
    185e:	29 f0       	breq	.+10     	; 0x186a <uart1_puts+0x16>
    1860:	21 96       	adiw	r28, 0x01	; 1
    1862:	e3 df       	rcall	.-58     	; 0x182a <uart1_putc>
    1864:	89 91       	ld	r24, Y+
    1866:	81 11       	cpse	r24, r1
    1868:	fc cf       	rjmp	.-8      	; 0x1862 <uart1_puts+0xe>
    186a:	df 91       	pop	r29
    186c:	cf 91       	pop	r28
    186e:	08 95       	ret

00001870 <isCharAvailable>:
    1870:	80 91 c0 00 	lds	r24, 0x00C0	; 0x8000c0 <__TEXT_REGION_LENGTH__+0x7e00c0>
    1874:	88 1f       	adc	r24, r24
    1876:	88 27       	eor	r24, r24
    1878:	88 1f       	adc	r24, r24
    187a:	08 95       	ret

0000187c <receiveChar>:

char receiveChar()
{
	// Return the char in the UDR0 register
	return UDR0;
    187c:	80 91 c6 00 	lds	r24, 0x00C6	; 0x8000c6 <__TEXT_REGION_LENGTH__+0x7e00c6>
	
}
    1880:	08 95       	ret

00001882 <__udivmodhi4>:
    1882:	aa 1b       	sub	r26, r26
    1884:	bb 1b       	sub	r27, r27
    1886:	51 e1       	ldi	r21, 0x11	; 17
    1888:	07 c0       	rjmp	.+14     	; 0x1898 <__udivmodhi4_ep>

0000188a <__udivmodhi4_loop>:
    188a:	aa 1f       	adc	r26, r26
    188c:	bb 1f       	adc	r27, r27
    188e:	a6 17       	cp	r26, r22
    1890:	b7 07       	cpc	r27, r23
    1892:	10 f0       	brcs	.+4      	; 0x1898 <__udivmodhi4_ep>
    1894:	a6 1b       	sub	r26, r22
    1896:	b7 0b       	sbc	r27, r23

00001898 <__udivmodhi4_ep>:
    1898:	88 1f       	adc	r24, r24
    189a:	99 1f       	adc	r25, r25
    189c:	5a 95       	dec	r21
    189e:	a9 f7       	brne	.-22     	; 0x188a <__udivmodhi4_loop>
    18a0:	80 95       	com	r24
    18a2:	90 95       	com	r25
    18a4:	bc 01       	movw	r22, r24
    18a6:	cd 01       	movw	r24, r26
    18a8:	08 95       	ret

000018aa <__tablejump2__>:
    18aa:	ee 0f       	add	r30, r30
    18ac:	ff 1f       	adc	r31, r31
    18ae:	00 24       	eor	r0, r0
    18b0:	00 1c       	adc	r0, r0
    18b2:	0b be       	out	0x3b, r0	; 59
    18b4:	07 90       	elpm	r0, Z+
    18b6:	f6 91       	elpm	r31, Z
    18b8:	e0 2d       	mov	r30, r0
    18ba:	09 94       	ijmp

000018bc <memcpy>:
    18bc:	fb 01       	movw	r30, r22
    18be:	dc 01       	movw	r26, r24
    18c0:	02 c0       	rjmp	.+4      	; 0x18c6 <memcpy+0xa>
    18c2:	01 90       	ld	r0, Z+
    18c4:	0d 92       	st	X+, r0
    18c6:	41 50       	subi	r20, 0x01	; 1
    18c8:	50 40       	sbci	r21, 0x00	; 0
    18ca:	d8 f7       	brcc	.-10     	; 0x18c2 <memcpy+0x6>
    18cc:	08 95       	ret

000018ce <snprintf>:
    18ce:	0f 93       	push	r16
    18d0:	1f 93       	push	r17
    18d2:	cf 93       	push	r28
    18d4:	df 93       	push	r29
    18d6:	cd b7       	in	r28, 0x3d	; 61
    18d8:	de b7       	in	r29, 0x3e	; 62
    18da:	2e 97       	sbiw	r28, 0x0e	; 14
    18dc:	0f b6       	in	r0, 0x3f	; 63
    18de:	f8 94       	cli
    18e0:	de bf       	out	0x3e, r29	; 62
    18e2:	0f be       	out	0x3f, r0	; 63
    18e4:	cd bf       	out	0x3d, r28	; 61
    18e6:	0d 89       	ldd	r16, Y+21	; 0x15
    18e8:	1e 89       	ldd	r17, Y+22	; 0x16
    18ea:	8f 89       	ldd	r24, Y+23	; 0x17
    18ec:	98 8d       	ldd	r25, Y+24	; 0x18
    18ee:	26 e0       	ldi	r18, 0x06	; 6
    18f0:	2c 83       	std	Y+4, r18	; 0x04
    18f2:	1a 83       	std	Y+2, r17	; 0x02
    18f4:	09 83       	std	Y+1, r16	; 0x01
    18f6:	97 ff       	sbrs	r25, 7
    18f8:	02 c0       	rjmp	.+4      	; 0x18fe <snprintf+0x30>
    18fa:	80 e0       	ldi	r24, 0x00	; 0
    18fc:	90 e8       	ldi	r25, 0x80	; 128
    18fe:	01 97       	sbiw	r24, 0x01	; 1
    1900:	9e 83       	std	Y+6, r25	; 0x06
    1902:	8d 83       	std	Y+5, r24	; 0x05
    1904:	ae 01       	movw	r20, r28
    1906:	45 5e       	subi	r20, 0xE5	; 229
    1908:	5f 4f       	sbci	r21, 0xFF	; 255
    190a:	69 8d       	ldd	r22, Y+25	; 0x19
    190c:	7a 8d       	ldd	r23, Y+26	; 0x1a
    190e:	ce 01       	movw	r24, r28
    1910:	01 96       	adiw	r24, 0x01	; 1
    1912:	19 d0       	rcall	.+50     	; 0x1946 <vfprintf>
    1914:	4d 81       	ldd	r20, Y+5	; 0x05
    1916:	5e 81       	ldd	r21, Y+6	; 0x06
    1918:	57 fd       	sbrc	r21, 7
    191a:	0a c0       	rjmp	.+20     	; 0x1930 <snprintf+0x62>
    191c:	2f 81       	ldd	r18, Y+7	; 0x07
    191e:	38 85       	ldd	r19, Y+8	; 0x08
    1920:	42 17       	cp	r20, r18
    1922:	53 07       	cpc	r21, r19
    1924:	0c f4       	brge	.+2      	; 0x1928 <snprintf+0x5a>
    1926:	9a 01       	movw	r18, r20
    1928:	f8 01       	movw	r30, r16
    192a:	e2 0f       	add	r30, r18
    192c:	f3 1f       	adc	r31, r19
    192e:	10 82       	st	Z, r1
    1930:	2e 96       	adiw	r28, 0x0e	; 14
    1932:	0f b6       	in	r0, 0x3f	; 63
    1934:	f8 94       	cli
    1936:	de bf       	out	0x3e, r29	; 62
    1938:	0f be       	out	0x3f, r0	; 63
    193a:	cd bf       	out	0x3d, r28	; 61
    193c:	df 91       	pop	r29
    193e:	cf 91       	pop	r28
    1940:	1f 91       	pop	r17
    1942:	0f 91       	pop	r16
    1944:	08 95       	ret

00001946 <vfprintf>:
    1946:	2f 92       	push	r2
    1948:	3f 92       	push	r3
    194a:	4f 92       	push	r4
    194c:	5f 92       	push	r5
    194e:	6f 92       	push	r6
    1950:	7f 92       	push	r7
    1952:	8f 92       	push	r8
    1954:	9f 92       	push	r9
    1956:	af 92       	push	r10
    1958:	bf 92       	push	r11
    195a:	cf 92       	push	r12
    195c:	df 92       	push	r13
    195e:	ef 92       	push	r14
    1960:	ff 92       	push	r15
    1962:	0f 93       	push	r16
    1964:	1f 93       	push	r17
    1966:	cf 93       	push	r28
    1968:	df 93       	push	r29
    196a:	cd b7       	in	r28, 0x3d	; 61
    196c:	de b7       	in	r29, 0x3e	; 62
    196e:	2b 97       	sbiw	r28, 0x0b	; 11
    1970:	0f b6       	in	r0, 0x3f	; 63
    1972:	f8 94       	cli
    1974:	de bf       	out	0x3e, r29	; 62
    1976:	0f be       	out	0x3f, r0	; 63
    1978:	cd bf       	out	0x3d, r28	; 61
    197a:	6c 01       	movw	r12, r24
    197c:	7b 01       	movw	r14, r22
    197e:	8a 01       	movw	r16, r20
    1980:	fc 01       	movw	r30, r24
    1982:	17 82       	std	Z+7, r1	; 0x07
    1984:	16 82       	std	Z+6, r1	; 0x06
    1986:	83 81       	ldd	r24, Z+3	; 0x03
    1988:	81 ff       	sbrs	r24, 1
    198a:	bf c1       	rjmp	.+894    	; 0x1d0a <vfprintf+0x3c4>
    198c:	ce 01       	movw	r24, r28
    198e:	01 96       	adiw	r24, 0x01	; 1
    1990:	3c 01       	movw	r6, r24
    1992:	f6 01       	movw	r30, r12
    1994:	93 81       	ldd	r25, Z+3	; 0x03
    1996:	f7 01       	movw	r30, r14
    1998:	93 fd       	sbrc	r25, 3
    199a:	85 91       	lpm	r24, Z+
    199c:	93 ff       	sbrs	r25, 3
    199e:	81 91       	ld	r24, Z+
    19a0:	7f 01       	movw	r14, r30
    19a2:	88 23       	and	r24, r24
    19a4:	09 f4       	brne	.+2      	; 0x19a8 <vfprintf+0x62>
    19a6:	ad c1       	rjmp	.+858    	; 0x1d02 <vfprintf+0x3bc>
    19a8:	85 32       	cpi	r24, 0x25	; 37
    19aa:	39 f4       	brne	.+14     	; 0x19ba <vfprintf+0x74>
    19ac:	93 fd       	sbrc	r25, 3
    19ae:	85 91       	lpm	r24, Z+
    19b0:	93 ff       	sbrs	r25, 3
    19b2:	81 91       	ld	r24, Z+
    19b4:	7f 01       	movw	r14, r30
    19b6:	85 32       	cpi	r24, 0x25	; 37
    19b8:	21 f4       	brne	.+8      	; 0x19c2 <vfprintf+0x7c>
    19ba:	b6 01       	movw	r22, r12
    19bc:	90 e0       	ldi	r25, 0x00	; 0
    19be:	d6 d1       	rcall	.+940    	; 0x1d6c <fputc>
    19c0:	e8 cf       	rjmp	.-48     	; 0x1992 <vfprintf+0x4c>
    19c2:	91 2c       	mov	r9, r1
    19c4:	21 2c       	mov	r2, r1
    19c6:	31 2c       	mov	r3, r1
    19c8:	ff e1       	ldi	r31, 0x1F	; 31
    19ca:	f3 15       	cp	r31, r3
    19cc:	d8 f0       	brcs	.+54     	; 0x1a04 <vfprintf+0xbe>
    19ce:	8b 32       	cpi	r24, 0x2B	; 43
    19d0:	79 f0       	breq	.+30     	; 0x19f0 <vfprintf+0xaa>
    19d2:	38 f4       	brcc	.+14     	; 0x19e2 <vfprintf+0x9c>
    19d4:	80 32       	cpi	r24, 0x20	; 32
    19d6:	79 f0       	breq	.+30     	; 0x19f6 <vfprintf+0xb0>
    19d8:	83 32       	cpi	r24, 0x23	; 35
    19da:	a1 f4       	brne	.+40     	; 0x1a04 <vfprintf+0xbe>
    19dc:	23 2d       	mov	r18, r3
    19de:	20 61       	ori	r18, 0x10	; 16
    19e0:	1d c0       	rjmp	.+58     	; 0x1a1c <vfprintf+0xd6>
    19e2:	8d 32       	cpi	r24, 0x2D	; 45
    19e4:	61 f0       	breq	.+24     	; 0x19fe <vfprintf+0xb8>
    19e6:	80 33       	cpi	r24, 0x30	; 48
    19e8:	69 f4       	brne	.+26     	; 0x1a04 <vfprintf+0xbe>
    19ea:	23 2d       	mov	r18, r3
    19ec:	21 60       	ori	r18, 0x01	; 1
    19ee:	16 c0       	rjmp	.+44     	; 0x1a1c <vfprintf+0xd6>
    19f0:	83 2d       	mov	r24, r3
    19f2:	82 60       	ori	r24, 0x02	; 2
    19f4:	38 2e       	mov	r3, r24
    19f6:	e3 2d       	mov	r30, r3
    19f8:	e4 60       	ori	r30, 0x04	; 4
    19fa:	3e 2e       	mov	r3, r30
    19fc:	2a c0       	rjmp	.+84     	; 0x1a52 <vfprintf+0x10c>
    19fe:	f3 2d       	mov	r31, r3
    1a00:	f8 60       	ori	r31, 0x08	; 8
    1a02:	1d c0       	rjmp	.+58     	; 0x1a3e <vfprintf+0xf8>
    1a04:	37 fc       	sbrc	r3, 7
    1a06:	2d c0       	rjmp	.+90     	; 0x1a62 <vfprintf+0x11c>
    1a08:	20 ed       	ldi	r18, 0xD0	; 208
    1a0a:	28 0f       	add	r18, r24
    1a0c:	2a 30       	cpi	r18, 0x0A	; 10
    1a0e:	40 f0       	brcs	.+16     	; 0x1a20 <vfprintf+0xda>
    1a10:	8e 32       	cpi	r24, 0x2E	; 46
    1a12:	b9 f4       	brne	.+46     	; 0x1a42 <vfprintf+0xfc>
    1a14:	36 fc       	sbrc	r3, 6
    1a16:	75 c1       	rjmp	.+746    	; 0x1d02 <vfprintf+0x3bc>
    1a18:	23 2d       	mov	r18, r3
    1a1a:	20 64       	ori	r18, 0x40	; 64
    1a1c:	32 2e       	mov	r3, r18
    1a1e:	19 c0       	rjmp	.+50     	; 0x1a52 <vfprintf+0x10c>
    1a20:	36 fe       	sbrs	r3, 6
    1a22:	06 c0       	rjmp	.+12     	; 0x1a30 <vfprintf+0xea>
    1a24:	8a e0       	ldi	r24, 0x0A	; 10
    1a26:	98 9e       	mul	r9, r24
    1a28:	20 0d       	add	r18, r0
    1a2a:	11 24       	eor	r1, r1
    1a2c:	92 2e       	mov	r9, r18
    1a2e:	11 c0       	rjmp	.+34     	; 0x1a52 <vfprintf+0x10c>
    1a30:	ea e0       	ldi	r30, 0x0A	; 10
    1a32:	2e 9e       	mul	r2, r30
    1a34:	20 0d       	add	r18, r0
    1a36:	11 24       	eor	r1, r1
    1a38:	22 2e       	mov	r2, r18
    1a3a:	f3 2d       	mov	r31, r3
    1a3c:	f0 62       	ori	r31, 0x20	; 32
    1a3e:	3f 2e       	mov	r3, r31
    1a40:	08 c0       	rjmp	.+16     	; 0x1a52 <vfprintf+0x10c>
    1a42:	8c 36       	cpi	r24, 0x6C	; 108
    1a44:	21 f4       	brne	.+8      	; 0x1a4e <vfprintf+0x108>
    1a46:	83 2d       	mov	r24, r3
    1a48:	80 68       	ori	r24, 0x80	; 128
    1a4a:	38 2e       	mov	r3, r24
    1a4c:	02 c0       	rjmp	.+4      	; 0x1a52 <vfprintf+0x10c>
    1a4e:	88 36       	cpi	r24, 0x68	; 104
    1a50:	41 f4       	brne	.+16     	; 0x1a62 <vfprintf+0x11c>
    1a52:	f7 01       	movw	r30, r14
    1a54:	93 fd       	sbrc	r25, 3
    1a56:	85 91       	lpm	r24, Z+
    1a58:	93 ff       	sbrs	r25, 3
    1a5a:	81 91       	ld	r24, Z+
    1a5c:	7f 01       	movw	r14, r30
    1a5e:	81 11       	cpse	r24, r1
    1a60:	b3 cf       	rjmp	.-154    	; 0x19c8 <vfprintf+0x82>
    1a62:	98 2f       	mov	r25, r24
    1a64:	9f 7d       	andi	r25, 0xDF	; 223
    1a66:	95 54       	subi	r25, 0x45	; 69
    1a68:	93 30       	cpi	r25, 0x03	; 3
    1a6a:	28 f4       	brcc	.+10     	; 0x1a76 <vfprintf+0x130>
    1a6c:	0c 5f       	subi	r16, 0xFC	; 252
    1a6e:	1f 4f       	sbci	r17, 0xFF	; 255
    1a70:	9f e3       	ldi	r25, 0x3F	; 63
    1a72:	99 83       	std	Y+1, r25	; 0x01
    1a74:	0d c0       	rjmp	.+26     	; 0x1a90 <vfprintf+0x14a>
    1a76:	83 36       	cpi	r24, 0x63	; 99
    1a78:	31 f0       	breq	.+12     	; 0x1a86 <vfprintf+0x140>
    1a7a:	83 37       	cpi	r24, 0x73	; 115
    1a7c:	71 f0       	breq	.+28     	; 0x1a9a <vfprintf+0x154>
    1a7e:	83 35       	cpi	r24, 0x53	; 83
    1a80:	09 f0       	breq	.+2      	; 0x1a84 <vfprintf+0x13e>
    1a82:	55 c0       	rjmp	.+170    	; 0x1b2e <vfprintf+0x1e8>
    1a84:	20 c0       	rjmp	.+64     	; 0x1ac6 <vfprintf+0x180>
    1a86:	f8 01       	movw	r30, r16
    1a88:	80 81       	ld	r24, Z
    1a8a:	89 83       	std	Y+1, r24	; 0x01
    1a8c:	0e 5f       	subi	r16, 0xFE	; 254
    1a8e:	1f 4f       	sbci	r17, 0xFF	; 255
    1a90:	88 24       	eor	r8, r8
    1a92:	83 94       	inc	r8
    1a94:	91 2c       	mov	r9, r1
    1a96:	53 01       	movw	r10, r6
    1a98:	12 c0       	rjmp	.+36     	; 0x1abe <vfprintf+0x178>
    1a9a:	28 01       	movw	r4, r16
    1a9c:	f2 e0       	ldi	r31, 0x02	; 2
    1a9e:	4f 0e       	add	r4, r31
    1aa0:	51 1c       	adc	r5, r1
    1aa2:	f8 01       	movw	r30, r16
    1aa4:	a0 80       	ld	r10, Z
    1aa6:	b1 80       	ldd	r11, Z+1	; 0x01
    1aa8:	36 fe       	sbrs	r3, 6
    1aaa:	03 c0       	rjmp	.+6      	; 0x1ab2 <vfprintf+0x16c>
    1aac:	69 2d       	mov	r22, r9
    1aae:	70 e0       	ldi	r23, 0x00	; 0
    1ab0:	02 c0       	rjmp	.+4      	; 0x1ab6 <vfprintf+0x170>
    1ab2:	6f ef       	ldi	r22, 0xFF	; 255
    1ab4:	7f ef       	ldi	r23, 0xFF	; 255
    1ab6:	c5 01       	movw	r24, r10
    1ab8:	4e d1       	rcall	.+668    	; 0x1d56 <strnlen>
    1aba:	4c 01       	movw	r8, r24
    1abc:	82 01       	movw	r16, r4
    1abe:	f3 2d       	mov	r31, r3
    1ac0:	ff 77       	andi	r31, 0x7F	; 127
    1ac2:	3f 2e       	mov	r3, r31
    1ac4:	15 c0       	rjmp	.+42     	; 0x1af0 <vfprintf+0x1aa>
    1ac6:	28 01       	movw	r4, r16
    1ac8:	22 e0       	ldi	r18, 0x02	; 2
    1aca:	42 0e       	add	r4, r18
    1acc:	51 1c       	adc	r5, r1
    1ace:	f8 01       	movw	r30, r16
    1ad0:	a0 80       	ld	r10, Z
    1ad2:	b1 80       	ldd	r11, Z+1	; 0x01
    1ad4:	36 fe       	sbrs	r3, 6
    1ad6:	03 c0       	rjmp	.+6      	; 0x1ade <vfprintf+0x198>
    1ad8:	69 2d       	mov	r22, r9
    1ada:	70 e0       	ldi	r23, 0x00	; 0
    1adc:	02 c0       	rjmp	.+4      	; 0x1ae2 <vfprintf+0x19c>
    1ade:	6f ef       	ldi	r22, 0xFF	; 255
    1ae0:	7f ef       	ldi	r23, 0xFF	; 255
    1ae2:	c5 01       	movw	r24, r10
    1ae4:	2d d1       	rcall	.+602    	; 0x1d40 <strnlen_P>
    1ae6:	4c 01       	movw	r8, r24
    1ae8:	f3 2d       	mov	r31, r3
    1aea:	f0 68       	ori	r31, 0x80	; 128
    1aec:	3f 2e       	mov	r3, r31
    1aee:	82 01       	movw	r16, r4
    1af0:	33 fc       	sbrc	r3, 3
    1af2:	19 c0       	rjmp	.+50     	; 0x1b26 <vfprintf+0x1e0>
    1af4:	82 2d       	mov	r24, r2
    1af6:	90 e0       	ldi	r25, 0x00	; 0
    1af8:	88 16       	cp	r8, r24
    1afa:	99 06       	cpc	r9, r25
    1afc:	a0 f4       	brcc	.+40     	; 0x1b26 <vfprintf+0x1e0>
    1afe:	b6 01       	movw	r22, r12
    1b00:	80 e2       	ldi	r24, 0x20	; 32
    1b02:	90 e0       	ldi	r25, 0x00	; 0
    1b04:	33 d1       	rcall	.+614    	; 0x1d6c <fputc>
    1b06:	2a 94       	dec	r2
    1b08:	f5 cf       	rjmp	.-22     	; 0x1af4 <vfprintf+0x1ae>
    1b0a:	f5 01       	movw	r30, r10
    1b0c:	37 fc       	sbrc	r3, 7
    1b0e:	85 91       	lpm	r24, Z+
    1b10:	37 fe       	sbrs	r3, 7
    1b12:	81 91       	ld	r24, Z+
    1b14:	5f 01       	movw	r10, r30
    1b16:	b6 01       	movw	r22, r12
    1b18:	90 e0       	ldi	r25, 0x00	; 0
    1b1a:	28 d1       	rcall	.+592    	; 0x1d6c <fputc>
    1b1c:	21 10       	cpse	r2, r1
    1b1e:	2a 94       	dec	r2
    1b20:	21 e0       	ldi	r18, 0x01	; 1
    1b22:	82 1a       	sub	r8, r18
    1b24:	91 08       	sbc	r9, r1
    1b26:	81 14       	cp	r8, r1
    1b28:	91 04       	cpc	r9, r1
    1b2a:	79 f7       	brne	.-34     	; 0x1b0a <vfprintf+0x1c4>
    1b2c:	e1 c0       	rjmp	.+450    	; 0x1cf0 <vfprintf+0x3aa>
    1b2e:	84 36       	cpi	r24, 0x64	; 100
    1b30:	11 f0       	breq	.+4      	; 0x1b36 <vfprintf+0x1f0>
    1b32:	89 36       	cpi	r24, 0x69	; 105
    1b34:	39 f5       	brne	.+78     	; 0x1b84 <vfprintf+0x23e>
    1b36:	f8 01       	movw	r30, r16
    1b38:	37 fe       	sbrs	r3, 7
    1b3a:	07 c0       	rjmp	.+14     	; 0x1b4a <vfprintf+0x204>
    1b3c:	60 81       	ld	r22, Z
    1b3e:	71 81       	ldd	r23, Z+1	; 0x01
    1b40:	82 81       	ldd	r24, Z+2	; 0x02
    1b42:	93 81       	ldd	r25, Z+3	; 0x03
    1b44:	0c 5f       	subi	r16, 0xFC	; 252
    1b46:	1f 4f       	sbci	r17, 0xFF	; 255
    1b48:	08 c0       	rjmp	.+16     	; 0x1b5a <vfprintf+0x214>
    1b4a:	60 81       	ld	r22, Z
    1b4c:	71 81       	ldd	r23, Z+1	; 0x01
    1b4e:	07 2e       	mov	r0, r23
    1b50:	00 0c       	add	r0, r0
    1b52:	88 0b       	sbc	r24, r24
    1b54:	99 0b       	sbc	r25, r25
    1b56:	0e 5f       	subi	r16, 0xFE	; 254
    1b58:	1f 4f       	sbci	r17, 0xFF	; 255
    1b5a:	f3 2d       	mov	r31, r3
    1b5c:	ff 76       	andi	r31, 0x6F	; 111
    1b5e:	3f 2e       	mov	r3, r31
    1b60:	97 ff       	sbrs	r25, 7
    1b62:	09 c0       	rjmp	.+18     	; 0x1b76 <vfprintf+0x230>
    1b64:	90 95       	com	r25
    1b66:	80 95       	com	r24
    1b68:	70 95       	com	r23
    1b6a:	61 95       	neg	r22
    1b6c:	7f 4f       	sbci	r23, 0xFF	; 255
    1b6e:	8f 4f       	sbci	r24, 0xFF	; 255
    1b70:	9f 4f       	sbci	r25, 0xFF	; 255
    1b72:	f0 68       	ori	r31, 0x80	; 128
    1b74:	3f 2e       	mov	r3, r31
    1b76:	2a e0       	ldi	r18, 0x0A	; 10
    1b78:	30 e0       	ldi	r19, 0x00	; 0
    1b7a:	a3 01       	movw	r20, r6
    1b7c:	33 d1       	rcall	.+614    	; 0x1de4 <__ultoa_invert>
    1b7e:	88 2e       	mov	r8, r24
    1b80:	86 18       	sub	r8, r6
    1b82:	44 c0       	rjmp	.+136    	; 0x1c0c <vfprintf+0x2c6>
    1b84:	85 37       	cpi	r24, 0x75	; 117
    1b86:	31 f4       	brne	.+12     	; 0x1b94 <vfprintf+0x24e>
    1b88:	23 2d       	mov	r18, r3
    1b8a:	2f 7e       	andi	r18, 0xEF	; 239
    1b8c:	b2 2e       	mov	r11, r18
    1b8e:	2a e0       	ldi	r18, 0x0A	; 10
    1b90:	30 e0       	ldi	r19, 0x00	; 0
    1b92:	25 c0       	rjmp	.+74     	; 0x1bde <vfprintf+0x298>
    1b94:	93 2d       	mov	r25, r3
    1b96:	99 7f       	andi	r25, 0xF9	; 249
    1b98:	b9 2e       	mov	r11, r25
    1b9a:	8f 36       	cpi	r24, 0x6F	; 111
    1b9c:	c1 f0       	breq	.+48     	; 0x1bce <vfprintf+0x288>
    1b9e:	18 f4       	brcc	.+6      	; 0x1ba6 <vfprintf+0x260>
    1ba0:	88 35       	cpi	r24, 0x58	; 88
    1ba2:	79 f0       	breq	.+30     	; 0x1bc2 <vfprintf+0x27c>
    1ba4:	ae c0       	rjmp	.+348    	; 0x1d02 <vfprintf+0x3bc>
    1ba6:	80 37       	cpi	r24, 0x70	; 112
    1ba8:	19 f0       	breq	.+6      	; 0x1bb0 <vfprintf+0x26a>
    1baa:	88 37       	cpi	r24, 0x78	; 120
    1bac:	21 f0       	breq	.+8      	; 0x1bb6 <vfprintf+0x270>
    1bae:	a9 c0       	rjmp	.+338    	; 0x1d02 <vfprintf+0x3bc>
    1bb0:	e9 2f       	mov	r30, r25
    1bb2:	e0 61       	ori	r30, 0x10	; 16
    1bb4:	be 2e       	mov	r11, r30
    1bb6:	b4 fe       	sbrs	r11, 4
    1bb8:	0d c0       	rjmp	.+26     	; 0x1bd4 <vfprintf+0x28e>
    1bba:	fb 2d       	mov	r31, r11
    1bbc:	f4 60       	ori	r31, 0x04	; 4
    1bbe:	bf 2e       	mov	r11, r31
    1bc0:	09 c0       	rjmp	.+18     	; 0x1bd4 <vfprintf+0x28e>
    1bc2:	34 fe       	sbrs	r3, 4
    1bc4:	0a c0       	rjmp	.+20     	; 0x1bda <vfprintf+0x294>
    1bc6:	29 2f       	mov	r18, r25
    1bc8:	26 60       	ori	r18, 0x06	; 6
    1bca:	b2 2e       	mov	r11, r18
    1bcc:	06 c0       	rjmp	.+12     	; 0x1bda <vfprintf+0x294>
    1bce:	28 e0       	ldi	r18, 0x08	; 8
    1bd0:	30 e0       	ldi	r19, 0x00	; 0
    1bd2:	05 c0       	rjmp	.+10     	; 0x1bde <vfprintf+0x298>
    1bd4:	20 e1       	ldi	r18, 0x10	; 16
    1bd6:	30 e0       	ldi	r19, 0x00	; 0
    1bd8:	02 c0       	rjmp	.+4      	; 0x1bde <vfprintf+0x298>
    1bda:	20 e1       	ldi	r18, 0x10	; 16
    1bdc:	32 e0       	ldi	r19, 0x02	; 2
    1bde:	f8 01       	movw	r30, r16
    1be0:	b7 fe       	sbrs	r11, 7
    1be2:	07 c0       	rjmp	.+14     	; 0x1bf2 <vfprintf+0x2ac>
    1be4:	60 81       	ld	r22, Z
    1be6:	71 81       	ldd	r23, Z+1	; 0x01
    1be8:	82 81       	ldd	r24, Z+2	; 0x02
    1bea:	93 81       	ldd	r25, Z+3	; 0x03
    1bec:	0c 5f       	subi	r16, 0xFC	; 252
    1bee:	1f 4f       	sbci	r17, 0xFF	; 255
    1bf0:	06 c0       	rjmp	.+12     	; 0x1bfe <vfprintf+0x2b8>
    1bf2:	60 81       	ld	r22, Z
    1bf4:	71 81       	ldd	r23, Z+1	; 0x01
    1bf6:	80 e0       	ldi	r24, 0x00	; 0
    1bf8:	90 e0       	ldi	r25, 0x00	; 0
    1bfa:	0e 5f       	subi	r16, 0xFE	; 254
    1bfc:	1f 4f       	sbci	r17, 0xFF	; 255
    1bfe:	a3 01       	movw	r20, r6
    1c00:	f1 d0       	rcall	.+482    	; 0x1de4 <__ultoa_invert>
    1c02:	88 2e       	mov	r8, r24
    1c04:	86 18       	sub	r8, r6
    1c06:	fb 2d       	mov	r31, r11
    1c08:	ff 77       	andi	r31, 0x7F	; 127
    1c0a:	3f 2e       	mov	r3, r31
    1c0c:	36 fe       	sbrs	r3, 6
    1c0e:	0d c0       	rjmp	.+26     	; 0x1c2a <vfprintf+0x2e4>
    1c10:	23 2d       	mov	r18, r3
    1c12:	2e 7f       	andi	r18, 0xFE	; 254
    1c14:	a2 2e       	mov	r10, r18
    1c16:	89 14       	cp	r8, r9
    1c18:	58 f4       	brcc	.+22     	; 0x1c30 <vfprintf+0x2ea>
    1c1a:	34 fe       	sbrs	r3, 4
    1c1c:	0b c0       	rjmp	.+22     	; 0x1c34 <vfprintf+0x2ee>
    1c1e:	32 fc       	sbrc	r3, 2
    1c20:	09 c0       	rjmp	.+18     	; 0x1c34 <vfprintf+0x2ee>
    1c22:	83 2d       	mov	r24, r3
    1c24:	8e 7e       	andi	r24, 0xEE	; 238
    1c26:	a8 2e       	mov	r10, r24
    1c28:	05 c0       	rjmp	.+10     	; 0x1c34 <vfprintf+0x2ee>
    1c2a:	b8 2c       	mov	r11, r8
    1c2c:	a3 2c       	mov	r10, r3
    1c2e:	03 c0       	rjmp	.+6      	; 0x1c36 <vfprintf+0x2f0>
    1c30:	b8 2c       	mov	r11, r8
    1c32:	01 c0       	rjmp	.+2      	; 0x1c36 <vfprintf+0x2f0>
    1c34:	b9 2c       	mov	r11, r9
    1c36:	a4 fe       	sbrs	r10, 4
    1c38:	0f c0       	rjmp	.+30     	; 0x1c58 <vfprintf+0x312>
    1c3a:	fe 01       	movw	r30, r28
    1c3c:	e8 0d       	add	r30, r8
    1c3e:	f1 1d       	adc	r31, r1
    1c40:	80 81       	ld	r24, Z
    1c42:	80 33       	cpi	r24, 0x30	; 48
    1c44:	21 f4       	brne	.+8      	; 0x1c4e <vfprintf+0x308>
    1c46:	9a 2d       	mov	r25, r10
    1c48:	99 7e       	andi	r25, 0xE9	; 233
    1c4a:	a9 2e       	mov	r10, r25
    1c4c:	09 c0       	rjmp	.+18     	; 0x1c60 <vfprintf+0x31a>
    1c4e:	a2 fe       	sbrs	r10, 2
    1c50:	06 c0       	rjmp	.+12     	; 0x1c5e <vfprintf+0x318>
    1c52:	b3 94       	inc	r11
    1c54:	b3 94       	inc	r11
    1c56:	04 c0       	rjmp	.+8      	; 0x1c60 <vfprintf+0x31a>
    1c58:	8a 2d       	mov	r24, r10
    1c5a:	86 78       	andi	r24, 0x86	; 134
    1c5c:	09 f0       	breq	.+2      	; 0x1c60 <vfprintf+0x31a>
    1c5e:	b3 94       	inc	r11
    1c60:	a3 fc       	sbrc	r10, 3
    1c62:	10 c0       	rjmp	.+32     	; 0x1c84 <vfprintf+0x33e>
    1c64:	a0 fe       	sbrs	r10, 0
    1c66:	06 c0       	rjmp	.+12     	; 0x1c74 <vfprintf+0x32e>
    1c68:	b2 14       	cp	r11, r2
    1c6a:	80 f4       	brcc	.+32     	; 0x1c8c <vfprintf+0x346>
    1c6c:	28 0c       	add	r2, r8
    1c6e:	92 2c       	mov	r9, r2
    1c70:	9b 18       	sub	r9, r11
    1c72:	0d c0       	rjmp	.+26     	; 0x1c8e <vfprintf+0x348>
    1c74:	b2 14       	cp	r11, r2
    1c76:	58 f4       	brcc	.+22     	; 0x1c8e <vfprintf+0x348>
    1c78:	b6 01       	movw	r22, r12
    1c7a:	80 e2       	ldi	r24, 0x20	; 32
    1c7c:	90 e0       	ldi	r25, 0x00	; 0
    1c7e:	76 d0       	rcall	.+236    	; 0x1d6c <fputc>
    1c80:	b3 94       	inc	r11
    1c82:	f8 cf       	rjmp	.-16     	; 0x1c74 <vfprintf+0x32e>
    1c84:	b2 14       	cp	r11, r2
    1c86:	18 f4       	brcc	.+6      	; 0x1c8e <vfprintf+0x348>
    1c88:	2b 18       	sub	r2, r11
    1c8a:	02 c0       	rjmp	.+4      	; 0x1c90 <vfprintf+0x34a>
    1c8c:	98 2c       	mov	r9, r8
    1c8e:	21 2c       	mov	r2, r1
    1c90:	a4 fe       	sbrs	r10, 4
    1c92:	0f c0       	rjmp	.+30     	; 0x1cb2 <vfprintf+0x36c>
    1c94:	b6 01       	movw	r22, r12
    1c96:	80 e3       	ldi	r24, 0x30	; 48
    1c98:	90 e0       	ldi	r25, 0x00	; 0
    1c9a:	68 d0       	rcall	.+208    	; 0x1d6c <fputc>
    1c9c:	a2 fe       	sbrs	r10, 2
    1c9e:	16 c0       	rjmp	.+44     	; 0x1ccc <vfprintf+0x386>
    1ca0:	a1 fc       	sbrc	r10, 1
    1ca2:	03 c0       	rjmp	.+6      	; 0x1caa <vfprintf+0x364>
    1ca4:	88 e7       	ldi	r24, 0x78	; 120
    1ca6:	90 e0       	ldi	r25, 0x00	; 0
    1ca8:	02 c0       	rjmp	.+4      	; 0x1cae <vfprintf+0x368>
    1caa:	88 e5       	ldi	r24, 0x58	; 88
    1cac:	90 e0       	ldi	r25, 0x00	; 0
    1cae:	b6 01       	movw	r22, r12
    1cb0:	0c c0       	rjmp	.+24     	; 0x1cca <vfprintf+0x384>
    1cb2:	8a 2d       	mov	r24, r10
    1cb4:	86 78       	andi	r24, 0x86	; 134
    1cb6:	51 f0       	breq	.+20     	; 0x1ccc <vfprintf+0x386>
    1cb8:	a1 fe       	sbrs	r10, 1
    1cba:	02 c0       	rjmp	.+4      	; 0x1cc0 <vfprintf+0x37a>
    1cbc:	8b e2       	ldi	r24, 0x2B	; 43
    1cbe:	01 c0       	rjmp	.+2      	; 0x1cc2 <vfprintf+0x37c>
    1cc0:	80 e2       	ldi	r24, 0x20	; 32
    1cc2:	a7 fc       	sbrc	r10, 7
    1cc4:	8d e2       	ldi	r24, 0x2D	; 45
    1cc6:	b6 01       	movw	r22, r12
    1cc8:	90 e0       	ldi	r25, 0x00	; 0
    1cca:	50 d0       	rcall	.+160    	; 0x1d6c <fputc>
    1ccc:	89 14       	cp	r8, r9
    1cce:	30 f4       	brcc	.+12     	; 0x1cdc <vfprintf+0x396>
    1cd0:	b6 01       	movw	r22, r12
    1cd2:	80 e3       	ldi	r24, 0x30	; 48
    1cd4:	90 e0       	ldi	r25, 0x00	; 0
    1cd6:	4a d0       	rcall	.+148    	; 0x1d6c <fputc>
    1cd8:	9a 94       	dec	r9
    1cda:	f8 cf       	rjmp	.-16     	; 0x1ccc <vfprintf+0x386>
    1cdc:	8a 94       	dec	r8
    1cde:	f3 01       	movw	r30, r6
    1ce0:	e8 0d       	add	r30, r8
    1ce2:	f1 1d       	adc	r31, r1
    1ce4:	80 81       	ld	r24, Z
    1ce6:	b6 01       	movw	r22, r12
    1ce8:	90 e0       	ldi	r25, 0x00	; 0
    1cea:	40 d0       	rcall	.+128    	; 0x1d6c <fputc>
    1cec:	81 10       	cpse	r8, r1
    1cee:	f6 cf       	rjmp	.-20     	; 0x1cdc <vfprintf+0x396>
    1cf0:	22 20       	and	r2, r2
    1cf2:	09 f4       	brne	.+2      	; 0x1cf6 <vfprintf+0x3b0>
    1cf4:	4e ce       	rjmp	.-868    	; 0x1992 <vfprintf+0x4c>
    1cf6:	b6 01       	movw	r22, r12
    1cf8:	80 e2       	ldi	r24, 0x20	; 32
    1cfa:	90 e0       	ldi	r25, 0x00	; 0
    1cfc:	37 d0       	rcall	.+110    	; 0x1d6c <fputc>
    1cfe:	2a 94       	dec	r2
    1d00:	f7 cf       	rjmp	.-18     	; 0x1cf0 <vfprintf+0x3aa>
    1d02:	f6 01       	movw	r30, r12
    1d04:	86 81       	ldd	r24, Z+6	; 0x06
    1d06:	97 81       	ldd	r25, Z+7	; 0x07
    1d08:	02 c0       	rjmp	.+4      	; 0x1d0e <vfprintf+0x3c8>
    1d0a:	8f ef       	ldi	r24, 0xFF	; 255
    1d0c:	9f ef       	ldi	r25, 0xFF	; 255
    1d0e:	2b 96       	adiw	r28, 0x0b	; 11
    1d10:	0f b6       	in	r0, 0x3f	; 63
    1d12:	f8 94       	cli
    1d14:	de bf       	out	0x3e, r29	; 62
    1d16:	0f be       	out	0x3f, r0	; 63
    1d18:	cd bf       	out	0x3d, r28	; 61
    1d1a:	df 91       	pop	r29
    1d1c:	cf 91       	pop	r28
    1d1e:	1f 91       	pop	r17
    1d20:	0f 91       	pop	r16
    1d22:	ff 90       	pop	r15
    1d24:	ef 90       	pop	r14
    1d26:	df 90       	pop	r13
    1d28:	cf 90       	pop	r12
    1d2a:	bf 90       	pop	r11
    1d2c:	af 90       	pop	r10
    1d2e:	9f 90       	pop	r9
    1d30:	8f 90       	pop	r8
    1d32:	7f 90       	pop	r7
    1d34:	6f 90       	pop	r6
    1d36:	5f 90       	pop	r5
    1d38:	4f 90       	pop	r4
    1d3a:	3f 90       	pop	r3
    1d3c:	2f 90       	pop	r2
    1d3e:	08 95       	ret

00001d40 <strnlen_P>:
    1d40:	fc 01       	movw	r30, r24
    1d42:	05 90       	lpm	r0, Z+
    1d44:	61 50       	subi	r22, 0x01	; 1
    1d46:	70 40       	sbci	r23, 0x00	; 0
    1d48:	01 10       	cpse	r0, r1
    1d4a:	d8 f7       	brcc	.-10     	; 0x1d42 <strnlen_P+0x2>
    1d4c:	80 95       	com	r24
    1d4e:	90 95       	com	r25
    1d50:	8e 0f       	add	r24, r30
    1d52:	9f 1f       	adc	r25, r31
    1d54:	08 95       	ret

00001d56 <strnlen>:
    1d56:	fc 01       	movw	r30, r24
    1d58:	61 50       	subi	r22, 0x01	; 1
    1d5a:	70 40       	sbci	r23, 0x00	; 0
    1d5c:	01 90       	ld	r0, Z+
    1d5e:	01 10       	cpse	r0, r1
    1d60:	d8 f7       	brcc	.-10     	; 0x1d58 <strnlen+0x2>
    1d62:	80 95       	com	r24
    1d64:	90 95       	com	r25
    1d66:	8e 0f       	add	r24, r30
    1d68:	9f 1f       	adc	r25, r31
    1d6a:	08 95       	ret

00001d6c <fputc>:
    1d6c:	0f 93       	push	r16
    1d6e:	1f 93       	push	r17
    1d70:	cf 93       	push	r28
    1d72:	df 93       	push	r29
    1d74:	fb 01       	movw	r30, r22
    1d76:	23 81       	ldd	r18, Z+3	; 0x03
    1d78:	21 fd       	sbrc	r18, 1
    1d7a:	03 c0       	rjmp	.+6      	; 0x1d82 <fputc+0x16>
    1d7c:	8f ef       	ldi	r24, 0xFF	; 255
    1d7e:	9f ef       	ldi	r25, 0xFF	; 255
    1d80:	2c c0       	rjmp	.+88     	; 0x1dda <fputc+0x6e>
    1d82:	22 ff       	sbrs	r18, 2
    1d84:	16 c0       	rjmp	.+44     	; 0x1db2 <fputc+0x46>
    1d86:	46 81       	ldd	r20, Z+6	; 0x06
    1d88:	57 81       	ldd	r21, Z+7	; 0x07
    1d8a:	24 81       	ldd	r18, Z+4	; 0x04
    1d8c:	35 81       	ldd	r19, Z+5	; 0x05
    1d8e:	42 17       	cp	r20, r18
    1d90:	53 07       	cpc	r21, r19
    1d92:	44 f4       	brge	.+16     	; 0x1da4 <fputc+0x38>
    1d94:	a0 81       	ld	r26, Z
    1d96:	b1 81       	ldd	r27, Z+1	; 0x01
    1d98:	9d 01       	movw	r18, r26
    1d9a:	2f 5f       	subi	r18, 0xFF	; 255
    1d9c:	3f 4f       	sbci	r19, 0xFF	; 255
    1d9e:	31 83       	std	Z+1, r19	; 0x01
    1da0:	20 83       	st	Z, r18
    1da2:	8c 93       	st	X, r24
    1da4:	26 81       	ldd	r18, Z+6	; 0x06
    1da6:	37 81       	ldd	r19, Z+7	; 0x07
    1da8:	2f 5f       	subi	r18, 0xFF	; 255
    1daa:	3f 4f       	sbci	r19, 0xFF	; 255
    1dac:	37 83       	std	Z+7, r19	; 0x07
    1dae:	26 83       	std	Z+6, r18	; 0x06
    1db0:	14 c0       	rjmp	.+40     	; 0x1dda <fputc+0x6e>
    1db2:	8b 01       	movw	r16, r22
    1db4:	ec 01       	movw	r28, r24
    1db6:	fb 01       	movw	r30, r22
    1db8:	00 84       	ldd	r0, Z+8	; 0x08
    1dba:	f1 85       	ldd	r31, Z+9	; 0x09
    1dbc:	e0 2d       	mov	r30, r0
    1dbe:	09 95       	icall
    1dc0:	89 2b       	or	r24, r25
    1dc2:	e1 f6       	brne	.-72     	; 0x1d7c <fputc+0x10>
    1dc4:	d8 01       	movw	r26, r16
    1dc6:	16 96       	adiw	r26, 0x06	; 6
    1dc8:	8d 91       	ld	r24, X+
    1dca:	9c 91       	ld	r25, X
    1dcc:	17 97       	sbiw	r26, 0x07	; 7
    1dce:	01 96       	adiw	r24, 0x01	; 1
    1dd0:	17 96       	adiw	r26, 0x07	; 7
    1dd2:	9c 93       	st	X, r25
    1dd4:	8e 93       	st	-X, r24
    1dd6:	16 97       	sbiw	r26, 0x06	; 6
    1dd8:	ce 01       	movw	r24, r28
    1dda:	df 91       	pop	r29
    1ddc:	cf 91       	pop	r28
    1dde:	1f 91       	pop	r17
    1de0:	0f 91       	pop	r16
    1de2:	08 95       	ret

00001de4 <__ultoa_invert>:
    1de4:	fa 01       	movw	r30, r20
    1de6:	aa 27       	eor	r26, r26
    1de8:	28 30       	cpi	r18, 0x08	; 8
    1dea:	51 f1       	breq	.+84     	; 0x1e40 <__ultoa_invert+0x5c>
    1dec:	20 31       	cpi	r18, 0x10	; 16
    1dee:	81 f1       	breq	.+96     	; 0x1e50 <__ultoa_invert+0x6c>
    1df0:	e8 94       	clt
    1df2:	6f 93       	push	r22
    1df4:	6e 7f       	andi	r22, 0xFE	; 254
    1df6:	6e 5f       	subi	r22, 0xFE	; 254
    1df8:	7f 4f       	sbci	r23, 0xFF	; 255
    1dfa:	8f 4f       	sbci	r24, 0xFF	; 255
    1dfc:	9f 4f       	sbci	r25, 0xFF	; 255
    1dfe:	af 4f       	sbci	r26, 0xFF	; 255
    1e00:	b1 e0       	ldi	r27, 0x01	; 1
    1e02:	3e d0       	rcall	.+124    	; 0x1e80 <__ultoa_invert+0x9c>
    1e04:	b4 e0       	ldi	r27, 0x04	; 4
    1e06:	3c d0       	rcall	.+120    	; 0x1e80 <__ultoa_invert+0x9c>
    1e08:	67 0f       	add	r22, r23
    1e0a:	78 1f       	adc	r23, r24
    1e0c:	89 1f       	adc	r24, r25
    1e0e:	9a 1f       	adc	r25, r26
    1e10:	a1 1d       	adc	r26, r1
    1e12:	68 0f       	add	r22, r24
    1e14:	79 1f       	adc	r23, r25
    1e16:	8a 1f       	adc	r24, r26
    1e18:	91 1d       	adc	r25, r1
    1e1a:	a1 1d       	adc	r26, r1
    1e1c:	6a 0f       	add	r22, r26
    1e1e:	71 1d       	adc	r23, r1
    1e20:	81 1d       	adc	r24, r1
    1e22:	91 1d       	adc	r25, r1
    1e24:	a1 1d       	adc	r26, r1
    1e26:	20 d0       	rcall	.+64     	; 0x1e68 <__ultoa_invert+0x84>
    1e28:	09 f4       	brne	.+2      	; 0x1e2c <__ultoa_invert+0x48>
    1e2a:	68 94       	set
    1e2c:	3f 91       	pop	r19
    1e2e:	2a e0       	ldi	r18, 0x0A	; 10
    1e30:	26 9f       	mul	r18, r22
    1e32:	11 24       	eor	r1, r1
    1e34:	30 19       	sub	r19, r0
    1e36:	30 5d       	subi	r19, 0xD0	; 208
    1e38:	31 93       	st	Z+, r19
    1e3a:	de f6       	brtc	.-74     	; 0x1df2 <__ultoa_invert+0xe>
    1e3c:	cf 01       	movw	r24, r30
    1e3e:	08 95       	ret
    1e40:	46 2f       	mov	r20, r22
    1e42:	47 70       	andi	r20, 0x07	; 7
    1e44:	40 5d       	subi	r20, 0xD0	; 208
    1e46:	41 93       	st	Z+, r20
    1e48:	b3 e0       	ldi	r27, 0x03	; 3
    1e4a:	0f d0       	rcall	.+30     	; 0x1e6a <__ultoa_invert+0x86>
    1e4c:	c9 f7       	brne	.-14     	; 0x1e40 <__ultoa_invert+0x5c>
    1e4e:	f6 cf       	rjmp	.-20     	; 0x1e3c <__ultoa_invert+0x58>
    1e50:	46 2f       	mov	r20, r22
    1e52:	4f 70       	andi	r20, 0x0F	; 15
    1e54:	40 5d       	subi	r20, 0xD0	; 208
    1e56:	4a 33       	cpi	r20, 0x3A	; 58
    1e58:	18 f0       	brcs	.+6      	; 0x1e60 <__ultoa_invert+0x7c>
    1e5a:	49 5d       	subi	r20, 0xD9	; 217
    1e5c:	31 fd       	sbrc	r19, 1
    1e5e:	40 52       	subi	r20, 0x20	; 32
    1e60:	41 93       	st	Z+, r20
    1e62:	02 d0       	rcall	.+4      	; 0x1e68 <__ultoa_invert+0x84>
    1e64:	a9 f7       	brne	.-22     	; 0x1e50 <__ultoa_invert+0x6c>
    1e66:	ea cf       	rjmp	.-44     	; 0x1e3c <__ultoa_invert+0x58>
    1e68:	b4 e0       	ldi	r27, 0x04	; 4
    1e6a:	a6 95       	lsr	r26
    1e6c:	97 95       	ror	r25
    1e6e:	87 95       	ror	r24
    1e70:	77 95       	ror	r23
    1e72:	67 95       	ror	r22
    1e74:	ba 95       	dec	r27
    1e76:	c9 f7       	brne	.-14     	; 0x1e6a <__ultoa_invert+0x86>
    1e78:	00 97       	sbiw	r24, 0x00	; 0
    1e7a:	61 05       	cpc	r22, r1
    1e7c:	71 05       	cpc	r23, r1
    1e7e:	08 95       	ret
    1e80:	9b 01       	movw	r18, r22
    1e82:	ac 01       	movw	r20, r24
    1e84:	0a 2e       	mov	r0, r26
    1e86:	06 94       	lsr	r0
    1e88:	57 95       	ror	r21
    1e8a:	47 95       	ror	r20
    1e8c:	37 95       	ror	r19
    1e8e:	27 95       	ror	r18
    1e90:	ba 95       	dec	r27
    1e92:	c9 f7       	brne	.-14     	; 0x1e86 <__ultoa_invert+0xa2>
    1e94:	62 0f       	add	r22, r18
    1e96:	73 1f       	adc	r23, r19
    1e98:	84 1f       	adc	r24, r20
    1e9a:	95 1f       	adc	r25, r21
    1e9c:	a0 1d       	adc	r26, r0
    1e9e:	08 95       	ret

00001ea0 <_exit>:
    1ea0:	f8 94       	cli

00001ea2 <__stop_program>:
    1ea2:	ff cf       	rjmp	.-2      	; 0x1ea2 <__stop_program>
